###############################################################################
#
# IAR ELF Linker V2.60.1.1702 for Renesas RX              21/Oct/2015  16:18:01
# Copyright 2009-2014 IAR Systems AB.
#
#    Output file  =  
#        C:\Embed_v2\Exercises\HandsOn\Exercise8\Debug\Exe\Exercise8.out
#    Map file     =  
#        C:\Embed_v2\Exercises\HandsOn\Exercise8\Debug\List\Exercise8.map
#    Command line =  
#        C:\Embed_v2\Exercises\HandsOn\Exercise8\Debug\Obj\adc.o
#        C:\Embed_v2\Exercises\HandsOn\Exercise8\Debug\Obj\adcisr.o
#        C:\Embed_v2\Exercises\HandsOn\Exercise8\Debug\Obj\alarm.o
#        C:\Embed_v2\Exercises\HandsOn\Exercise8\Debug\Obj\bsp.o
#        C:\Embed_v2\Exercises\HandsOn\Exercise8\Debug\Obj\bsp_glcd.o
#        C:\Embed_v2\Exercises\HandsOn\Exercise8\Debug\Obj\bsp_int.o
#        C:\Embed_v2\Exercises\HandsOn\Exercise8\Debug\Obj\bsp_led.o
#        C:\Embed_v2\Exercises\HandsOn\Exercise8\Debug\Obj\bsp_misc.o
#        C:\Embed_v2\Exercises\HandsOn\Exercise8\Debug\Obj\bsp_os.o
#        C:\Embed_v2\Exercises\HandsOn\Exercise8\Debug\Obj\bsp_ser.o
#        C:\Embed_v2\Exercises\HandsOn\Exercise8\Debug\Obj\bsp_sys.o
#        C:\Embed_v2\Exercises\HandsOn\Exercise8\Debug\Obj\cpu_bsp.o
#        C:\Embed_v2\Exercises\HandsOn\Exercise8\Debug\Obj\cpu_core.o
#        C:\Embed_v2\Exercises\HandsOn\Exercise8\Debug\Obj\cstartup.o
#        C:\Embed_v2\Exercises\HandsOn\Exercise8\Debug\Obj\exercise8.o
#        C:\Embed_v2\Exercises\HandsOn\Exercise8\Debug\Obj\font_8x8.o
#        C:\Embed_v2\Exercises\HandsOn\Exercise8\Debug\Obj\font_x5x7.o
#        C:\Embed_v2\Exercises\HandsOn\Exercise8\Debug\Obj\Glyph.o
#        C:\Embed_v2\Exercises\HandsOn\Exercise8\Debug\Obj\GlyphRegister.o
#        C:\Embed_v2\Exercises\HandsOn\Exercise8\Debug\Obj\interrupts.o
#        C:\Embed_v2\Exercises\HandsOn\Exercise8\Debug\Obj\lib_ascii.o
#        C:\Embed_v2\Exercises\HandsOn\Exercise8\Debug\Obj\lib_math.o
#        C:\Embed_v2\Exercises\HandsOn\Exercise8\Debug\Obj\lib_mem.o
#        C:\Embed_v2\Exercises\HandsOn\Exercise8\Debug\Obj\lib_str.o
#        C:\Embed_v2\Exercises\HandsOn\Exercise8\Debug\Obj\os_app_hooks.o
#        C:\Embed_v2\Exercises\HandsOn\Exercise8\Debug\Obj\os_bsp.o
#        C:\Embed_v2\Exercises\HandsOn\Exercise8\Debug\Obj\os_cfg_app.o
#        C:\Embed_v2\Exercises\HandsOn\Exercise8\Debug\Obj\os_core.o
#        C:\Embed_v2\Exercises\HandsOn\Exercise8\Debug\Obj\os_cpu_a.o
#        C:\Embed_v2\Exercises\HandsOn\Exercise8\Debug\Obj\os_cpu_c.o
#        C:\Embed_v2\Exercises\HandsOn\Exercise8\Debug\Obj\os_dbg.o
#        C:\Embed_v2\Exercises\HandsOn\Exercise8\Debug\Obj\os_flag.o
#        C:\Embed_v2\Exercises\HandsOn\Exercise8\Debug\Obj\os_int.o
#        C:\Embed_v2\Exercises\HandsOn\Exercise8\Debug\Obj\os_mem.o
#        C:\Embed_v2\Exercises\HandsOn\Exercise8\Debug\Obj\os_msg.o
#        C:\Embed_v2\Exercises\HandsOn\Exercise8\Debug\Obj\os_mutex.o
#        C:\Embed_v2\Exercises\HandsOn\Exercise8\Debug\Obj\os_pend_multi.o
#        C:\Embed_v2\Exercises\HandsOn\Exercise8\Debug\Obj\os_prio.o
#        C:\Embed_v2\Exercises\HandsOn\Exercise8\Debug\Obj\os_q.o
#        C:\Embed_v2\Exercises\HandsOn\Exercise8\Debug\Obj\os_sem.o
#        C:\Embed_v2\Exercises\HandsOn\Exercise8\Debug\Obj\os_stat.o
#        C:\Embed_v2\Exercises\HandsOn\Exercise8\Debug\Obj\os_task.o
#        C:\Embed_v2\Exercises\HandsOn\Exercise8\Debug\Obj\os_tick.o
#        C:\Embed_v2\Exercises\HandsOn\Exercise8\Debug\Obj\os_time.o
#        C:\Embed_v2\Exercises\HandsOn\Exercise8\Debug\Obj\os_tmr.o
#        C:\Embed_v2\Exercises\HandsOn\Exercise8\Debug\Obj\os_var.o
#        C:\Embed_v2\Exercises\HandsOn\Exercise8\Debug\Obj\pushbutton.o
#        C:\Embed_v2\Exercises\HandsOn\Exercise8\Debug\Obj\ST7579_LCD.o
#        C:\Embed_v2\Exercises\HandsOn\Exercise8\Debug\Obj\YRDKRX63N_RSPI0.o
#        --redirect __Printf=__PrintfSmall --redirect __Scanf=__ScanfFull -o
#        C:\Embed_v2\Exercises\HandsOn\Exercise8\Debug\Exe\Exercise8.out --map
#        C:\Embed_v2\Exercises\HandsOn\Exercise8\Debug\List\Exercise8.map
#        --config "C:\Program Files (x86)\IAR Systems\Embedded Workbench
#        7.0\rx\CONFIG\lnkr5f563nb.icf" --config_def _USTACK_SIZE=0x0
#        --config_def _ISTACK_SIZE=0x200 --config_def _HEAP_SIZE=0x800 --entry
#        __iar_program_start --debug_lib --inline --vfe
#
###############################################################################

*******************************************************************************
*** RUNTIME MODEL ATTRIBUTES
***

__SystemLibrary            = DLib
__calling_conv             = abi10
__core                     = 1
__dlib_file_descriptor     = 0
__dlib_full_locale_support = 0
__double_size              = 32
__endian                   = l
__fpu                      = 1
__int_size                 = 32
__lock_R10                 = 0
__lock_R11                 = 0
__lock_R12                 = 0
__lock_R13                 = 0
__lock_R8                  = 0
__lock_R9                  = 0
__rt_version               = 5


*******************************************************************************
*** PLACEMENT SUMMARY
***

"A1":  place at 0xffffff80 { ro section .nmivec };
"ROM16":
       place in [from 0xffff8000 to 0xffffffff] {
          ro section .code16*, ro section .data16* };
"ROM24":
       place in [from 0xfff00000 to 0xffffffff] {
          ro section .code24*, ro section .data24* };
"RAM24":
       place in [from 0x00000004 to 0x0001ffff] { rw section .data24* };
"ROM32":
       place in [from 0xfff00000 to 0xffffffff] { ro };
"RAM32":
       place in [from 0x00000004 to 0x0001ffff] {
          rw, ro section D, ro section D_1, ro section D_2, block HEAP,
          block STACKS };

  Section          Kind        Address    Size  Object
  -------          ----        -------    ----  ------
"RAM24":                                0x7cc4
  .data24.bss      zero     0x00000004  0x5000  lib_mem.o [1]
  .data24.bss      zero     0x00005004   0x640  os_cfg_app.o [1]
  .data24.bss      zero     0x00005644   0x200  alarm.o [1]
  .data24.bss      zero     0x00005844   0x200  exercise8.o [1]
  .data24.bss      zero     0x00005a44   0x200  exercise8.o [1]
  .data24.bss      zero     0x00005c44   0x200  exercise8.o [1]
  .data24.bss      zero     0x00005e44   0x200  exercise8.o [1]
  .data24.bss      zero     0x00006044   0x200  exercise8.o [1]
  .data24.bss      zero     0x00006244   0x200  exercise8.o [1]
  .data24.bss      zero     0x00006444   0x200  exercise8.o [1]
  .data24.bss      zero     0x00006644   0x200  exercise8.o [1]
  .data24.bss      zero     0x00006844   0x200  os_cfg_app.o [1]
  .data24.bss      zero     0x00006a44   0x200  os_cfg_app.o [1]
  .data24.bss      zero     0x00006c44   0x200  os_cfg_app.o [1]
  .data24.bss      zero     0x00006e44   0x200  os_cfg_app.o [1]
  .data24.bss      zero     0x00007044    0xc4  alarm.o [1]
  .data24.bss      zero     0x00007108    0xc4  exercise8.o [1]
  .data24.bss      zero     0x000071cc    0xc4  exercise8.o [1]
  .data24.bss      zero     0x00007290    0xc4  exercise8.o [1]
  .data24.bss      zero     0x00007354    0xc4  exercise8.o [1]
  .data24.bss      zero     0x00007418    0xc4  exercise8.o [1]
  .data24.bss      zero     0x000074dc    0xc4  exercise8.o [1]
  .data24.bss      zero     0x000075a0    0xc4  exercise8.o [1]
  .data24.bss      zero     0x00007664    0xc4  exercise8.o [1]
  .data24.bss      zero     0x00007728    0xc4  os_var.o [1]
  .data24.bss      zero     0x000077ec    0xc4  os_var.o [1]
  .data24.bss      zero     0x000078b0    0xc4  os_var.o [1]
  .data24.bss      zero     0x00007974    0xc0  os_var.o [1]
  .data24.bss      zero     0x00007a34    0x58  Glyph.o [1]
  .data24.bss      zero     0x00007a8c    0x30  adc.o [1]
  .data24.bss      zero     0x00007abc    0x30  bsp_os.o [1]
  .data24.bss      zero     0x00007aec    0x30  exercise8.o [1]
  .data24.bss      zero     0x00007b1c    0x30  os_var.o [1]
  .data24.bss      zero     0x00007b4c    0x28  exercise8.o [1]
  .data24.bss      zero     0x00007b74    0x28  exercise8.o [1]
  .data24.bss      zero     0x00007b9c    0x28  exercise8.o [1]
  .data24.bss      zero     0x00007bc4    0x14  lib_mem.o [1]
  .data24.bss      zero     0x00007bd8    0x10  cpu_core.o [1]
  .data24.bss      zero     0x00007be8     0xc  Glyph.o [1]
  .data24.bss      zero     0x00007bf4     0xc  os_var.o [1]
  .data24.bss      zero     0x00007c00     0x8  Glyph.o [1]
  .data24.bss      zero     0x00007c08     0x8  os_var.o [1]
  .data24.bss      zero     0x00007c10     0x8  os_var.o [1]
  .data24.bss      zero     0x00007c18     0x4  bsp_glcd.o [1]
  .data24.bss      zero     0x00007c1c     0x4  cpu_core.o [1]
  .data24.bss      zero     0x00007c20     0x4  cpu_core.o [1]
  .data24.bss      zero     0x00007c24     0x4  lib_mem.o [1]
  .data24.bss      zero     0x00007c28     0x4  os_cpu_c.o [1]
  .data24.bss      zero     0x00007c2c     0x4  os_prio.o [1]
  .data24.bss      zero     0x00007c30     0x4  os_var.o [1]
  .data24.bss      zero     0x00007c34     0x4  os_var.o [1]
  .data24.bss      zero     0x00007c38     0x4  os_var.o [1]
  .data24.bss      zero     0x00007c3c     0x4  os_var.o [1]
  .data24.bss      zero     0x00007c40     0x4  os_var.o [1]
  .data24.bss      zero     0x00007c44     0x4  os_var.o [1]
  .data24.bss      zero     0x00007c48     0x4  os_var.o [1]
  .data24.bss      zero     0x00007c4c     0x4  os_var.o [1]
  .data24.bss      zero     0x00007c50     0x4  os_var.o [1]
  .data24.bss      zero     0x00007c54     0x4  os_var.o [1]
  .data24.bss      zero     0x00007c58     0x4  os_var.o [1]
  .data24.bss      zero     0x00007c5c     0x4  os_var.o [1]
  .data24.bss      zero     0x00007c60     0x4  os_var.o [1]
  .data24.bss      zero     0x00007c64     0x4  os_var.o [1]
  .data24.bss      zero     0x00007c68     0x4  os_var.o [1]
  .data24.bss      zero     0x00007c6c     0x4  os_var.o [1]
  .data24.bss      zero     0x00007c70     0x4  os_var.o [1]
  .data24.bss      zero     0x00007c74     0x4  os_var.o [1]
  .data24.bss      zero     0x00007c78     0x4  os_var.o [1]
  .data24.bss      zero     0x00007c7c     0x4  os_var.o [1]
  .data24.bss      zero     0x00007c80     0x4  os_var.o [1]
  .data24.bss      zero     0x00007c84     0x4  os_var.o [1]
  .data24.bss      zero     0x00007c88     0x4  os_var.o [1]
  .data24.bss      zero     0x00007c8c     0x4  os_var.o [1]
  .data24.bss      zero     0x00007c90     0x4  os_var.o [1]
  .data24.bss      zero     0x00007c94     0x2  adc.o [1]
  .data24.bss      zero     0x00007c96     0x2  adc.o [1]
  .data24.bss      zero     0x00007c98     0x2  cpu_core.o [1]
  .data24.bss      zero     0x00007c9a     0x2  cpu_core.o [1]
  .data24.bss      zero     0x00007c9c     0x2  cpu_core.o [1]
  .data24.bss      zero     0x00007c9e     0x2  cpu_core.o [1]
  .data24.bss      zero     0x00007ca0     0x2  cpu_core.o [1]
  .data24.bss      zero     0x00007ca2     0x2  cpu_core.o [1]
  .data24.bss      zero     0x00007ca4     0x2  cpu_core.o [1]
  .data24.bss      zero     0x00007ca6     0x2  cpu_core.o [1]
  .data24.bss      zero     0x00007ca8     0x2  os_var.o [1]
  .data24.bss      zero     0x00007caa     0x2  os_var.o [1]
  .data24.bss      zero     0x00007cac     0x2  os_var.o [1]
  .data24.bss      zero     0x00007cae     0x2  os_var.o [1]
  .data24.bss      zero     0x00007cb0     0x2  os_var.o [1]
  .data24.bss      zero     0x00007cb2     0x2  os_var.o [1]
  .data24.bss      zero     0x00007cb4     0x2  os_var.o [1]
  .data24.bss      zero     0x00007cb6     0x2  os_var.o [1]
  .data24.bss      zero     0x00007cb8     0x2  os_var.o [1]
  .data24.bss      zero     0x00007cba     0x2  pushbutton.o [1]
  .data24.bss      zero     0x00007cbc     0x2  pushbutton.o [1]
  .data24.bss      zero     0x00007cbe     0x1  os_var.o [1]
  .data24.bss      zero     0x00007cbf     0x1  os_var.o [1]
  .data24.bss      zero     0x00007cc0     0x1  os_var.o [1]
  .data24.bss      zero     0x00007cc1     0x1  os_var.o [1]
  .data24.bss      zero     0x00007cc2     0x1  os_var.o [1]
  .data24.bss      zero     0x00007cc3     0x1  os_var.o [1]
  .data24.bss      zero     0x00007cc4     0x1  os_var.o [1]
  .data24.bss      zero     0x00007cc5     0x1  os_var.o [1]
                          - 0x00007cc6  0x7cc2

"RAM32":                                 0x200
  STACKS                    0x00007cc8   0x200  <Block>
    ISTACK                  0x00007cc8   0x200  <Block>
      ISTACK       uninit   0x00007cc8   0x200  <Block tail>
                          - 0x00007ec8   0x200

"ROM24":                                0x1e7a
  .data24.rodata   const    0xfff00000   0x400  font_8x8.o [1]
  .data24.rodata   const    0xfff00400   0x400  font_x5x7.o [1]
  .data24.rodata   const    0xfff00800   0x400  interrupts.o [1]
  .data24.rodata   const    0xfff00c00   0x100  cpu_core.o [1]
  .data24.rodata   const    0xfff00d00    0x34  exercise8.o [1]
  .data24.rodata   const    0xfff00d34    0x30  alarm.o [1]
  .data24.rodata   const    0xfff00d64    0x30  os_dbg.o [1]
  .data24.rodata   const    0xfff00d94    0x30  os_dbg.o [1]
  .data24.rodata   const    0xfff00dc4    0x30  os_dbg.o [1]
  .data24.rodata   const    0xfff00df4    0x2e  adc.o [1]
  .data24.rodata   const    0xfff00e22     0xa  adc.o [1]
  .data24.rodata   const    0xfff00e2c    0x28  os_dbg.o [1]
  .data24.rodata   const    0xfff00e54    0x28  os_dbg.o [1]
  .data24.rodata   const    0xfff00e7c    0x20  os_dbg.o [1]
  .data24.rodata   const    0xfff00e9c    0x1d  exercise8.o [1]
  .data24.rodata   const    0xfff00eb9    0x13  adc.o [1]
  .data24.rodata   const    0xfff00ecc    0x1c  exercise8.o [1]
  .data24.rodata   const    0xfff00ee8    0x15  exercise8.o [1]
  .data24.rodata   const    0xfff00efd    0x15  os_tmr.o [1]
  .data24.rodata   const    0xfff00f12     0xa  exercise8.o [1]
  .data24.rodata   const    0xfff00f1c    0x14  os_core.o [1]
  .data24.rodata   const    0xfff00f30    0x14  os_tick.o [1]
  .data24.rodata   const    0xfff00f44    0x13  alarm.o [1]
  .data24.rodata   const    0xfff00f57    0x13  exercise8.o [1]
  .data24.rodata   const    0xfff00f6a     0xa  font_8x8.o [1]
  .data24.rodata   const    0xfff00f74    0x10  exercise8.o [1]
  .data24.rodata   const    0xfff00f84    0x10  exercise8.o [1]
  .data24.rodata   const    0xfff00f94     0xf  adc.o [1]
  .data24.rodata   const    0xfff00fa3     0xd  alarm.o [1]
  .data24.rodata   const    0xfff00fb0     0xd  os_tmr.o [1]
  .data24.rodata   const    0xfff00fbd     0xb  bsp_os.o [1]
  .data24.rodata   const    0xfff00fc8     0xb  exercise8.o [1]
  .data24.rodata   const    0xfff00fd3     0xb  exercise8.o [1]
  .data24.rodata   const    0xfff00fde     0xa  font_8x8.o [1]
  .data24.rodata   const    0xfff00fe8     0xa  font_8x8.o [1]
  .data24.rodata   const    0xfff00ff2     0xa  font_8x8.o [1]
  .data24.rodata   const    0xfff00ffc     0xa  font_8x8.o [1]
  .data24.rodata   const    0xfff01006     0xa  font_8x8.o [1]
  .data24.rodata   const    0xfff01010     0xa  font_8x8.o [1]
  .data24.rodata   const    0xfff0101a     0xa  font_8x8.o [1]
  .data24.rodata   const    0xfff01024     0xa  font_8x8.o [1]
  .data24.rodata   const    0xfff0102e     0xa  font_8x8.o [1]
  .data24.rodata   const    0xfff01038     0xa  font_8x8.o [1]
  .data24.rodata   const    0xfff01042     0xa  font_8x8.o [1]
  .data24.rodata   const    0xfff0104c     0xa  font_8x8.o [1]
  .data24.rodata   const    0xfff01056     0xa  font_8x8.o [1]
  .data24.rodata   const    0xfff01060     0xa  font_8x8.o [1]
  .data24.rodata   const    0xfff0106a     0xa  font_8x8.o [1]
  .data24.rodata   const    0xfff01074     0xa  font_8x8.o [1]
  .data24.rodata   const    0xfff0107e     0xa  font_8x8.o [1]
  .data24.rodata   const    0xfff01088     0xa  font_8x8.o [1]
  .data24.rodata   const    0xfff01092     0xa  font_8x8.o [1]
  .data24.rodata   const    0xfff0109c     0xa  font_8x8.o [1]
  .data24.rodata   const    0xfff010a6     0xa  font_8x8.o [1]
  .data24.rodata   const    0xfff010b0     0xa  font_8x8.o [1]
  .data24.rodata   const    0xfff010ba     0xa  font_8x8.o [1]
  .data24.rodata   const    0xfff010c4     0xa  font_8x8.o [1]
  .data24.rodata   const    0xfff010ce     0xa  font_8x8.o [1]
  .data24.rodata   const    0xfff010d8     0xa  font_8x8.o [1]
  .data24.rodata   const    0xfff010e2     0xa  font_8x8.o [1]
  .data24.rodata   const    0xfff010ec     0xa  font_8x8.o [1]
  .data24.rodata   const    0xfff010f6     0xa  font_8x8.o [1]
  .data24.rodata   const    0xfff01100     0xa  font_8x8.o [1]
  .data24.rodata   const    0xfff0110a     0xa  font_8x8.o [1]
  .data24.rodata   const    0xfff01114     0xa  font_8x8.o [1]
  .data24.rodata   const    0xfff0111e     0xa  font_8x8.o [1]
  .data24.rodata   const    0xfff01128     0xa  font_8x8.o [1]
  .data24.rodata   const    0xfff01132     0xa  font_8x8.o [1]
  .data24.rodata   const    0xfff0113c     0xa  font_8x8.o [1]
  .data24.rodata   const    0xfff01146     0xa  font_8x8.o [1]
  .data24.rodata   const    0xfff01150     0xa  font_8x8.o [1]
  .data24.rodata   const    0xfff0115a     0xa  font_8x8.o [1]
  .data24.rodata   const    0xfff01164     0xa  font_8x8.o [1]
  .data24.rodata   const    0xfff0116e     0xa  font_8x8.o [1]
  .data24.rodata   const    0xfff01178     0xa  font_8x8.o [1]
  .data24.rodata   const    0xfff01182     0xa  font_8x8.o [1]
  .data24.rodata   const    0xfff0118c     0xa  font_8x8.o [1]
  .data24.rodata   const    0xfff01196     0xa  font_8x8.o [1]
  .data24.rodata   const    0xfff011a0     0xa  font_8x8.o [1]
  .data24.rodata   const    0xfff011aa     0xa  font_8x8.o [1]
  .data24.rodata   const    0xfff011b4     0xa  font_8x8.o [1]
  .data24.rodata   const    0xfff011be     0xa  font_8x8.o [1]
  .data24.rodata   const    0xfff011c8     0xa  font_8x8.o [1]
  .data24.rodata   const    0xfff011d2     0xa  font_8x8.o [1]
  .data24.rodata   const    0xfff011dc     0xa  font_8x8.o [1]
  .data24.rodata   const    0xfff011e6     0xa  font_8x8.o [1]
  .data24.rodata   const    0xfff011f0     0xa  font_8x8.o [1]
  .data24.rodata   const    0xfff011fa     0xa  font_8x8.o [1]
  .data24.rodata   const    0xfff01204     0xa  font_8x8.o [1]
  .data24.rodata   const    0xfff0120e     0xa  font_8x8.o [1]
  .data24.rodata   const    0xfff01218     0xa  font_8x8.o [1]
  .data24.rodata   const    0xfff01222     0xa  font_8x8.o [1]
  .data24.rodata   const    0xfff0122c     0xa  font_8x8.o [1]
  .data24.rodata   const    0xfff01236     0xa  font_8x8.o [1]
  .data24.rodata   const    0xfff01240     0xa  font_8x8.o [1]
  .data24.rodata   const    0xfff0124a     0xa  font_8x8.o [1]
  .data24.rodata   const    0xfff01254     0xa  font_8x8.o [1]
  .data24.rodata   const    0xfff0125e     0xa  font_8x8.o [1]
  .data24.rodata   const    0xfff01268     0xa  font_8x8.o [1]
  .data24.rodata   const    0xfff01272     0xa  font_8x8.o [1]
  .data24.rodata   const    0xfff0127c     0xa  font_8x8.o [1]
  .data24.rodata   const    0xfff01286     0xa  font_8x8.o [1]
  .data24.rodata   const    0xfff01290     0xa  font_8x8.o [1]
  .data24.rodata   const    0xfff0129a     0xa  font_8x8.o [1]
  .data24.rodata   const    0xfff012a4     0xa  font_8x8.o [1]
  .data24.rodata   const    0xfff012ae     0xa  font_8x8.o [1]
  .data24.rodata   const    0xfff012b8     0xa  font_8x8.o [1]
  .data24.rodata   const    0xfff012c2     0xa  font_8x8.o [1]
  .data24.rodata   const    0xfff012cc     0xa  font_8x8.o [1]
  .data24.rodata   const    0xfff012d6     0xa  font_8x8.o [1]
  .data24.rodata   const    0xfff012e0     0xa  font_8x8.o [1]
  .data24.rodata   const    0xfff012ea     0xa  font_8x8.o [1]
  .data24.rodata   const    0xfff012f4     0xa  font_8x8.o [1]
  .data24.rodata   const    0xfff012fe     0xa  font_8x8.o [1]
  .data24.rodata   const    0xfff01308     0xa  font_8x8.o [1]
  .data24.rodata   const    0xfff01312     0xa  font_8x8.o [1]
  .data24.rodata   const    0xfff0131c     0xa  font_8x8.o [1]
  .data24.rodata   const    0xfff01326     0xa  font_8x8.o [1]
  .data24.rodata   const    0xfff01330     0xa  font_8x8.o [1]
  .data24.rodata   const    0xfff0133a     0xa  font_8x8.o [1]
  .data24.rodata   const    0xfff01344     0xa  font_8x8.o [1]
  .data24.rodata   const    0xfff0134e     0xa  font_8x8.o [1]
  .data24.rodata   const    0xfff01358     0xa  font_8x8.o [1]
  .data24.rodata   const    0xfff01362     0xa  font_8x8.o [1]
  .data24.rodata   const    0xfff0136c     0xa  font_8x8.o [1]
  .data24.rodata   const    0xfff01376     0xa  font_8x8.o [1]
  .data24.rodata   const    0xfff01380     0xa  font_8x8.o [1]
  .data24.rodata   const    0xfff0138a     0xa  font_8x8.o [1]
  .data24.rodata   const    0xfff01394     0xa  font_8x8.o [1]
  .data24.rodata   const    0xfff0139e     0xa  font_8x8.o [1]
  .data24.rodata   const    0xfff013a8     0xa  font_8x8.o [1]
  .data24.rodata   const    0xfff013b2     0xa  font_8x8.o [1]
  .data24.rodata   const    0xfff013bc     0xa  font_8x8.o [1]
  .data24.rodata   const    0xfff013c6     0xa  font_8x8.o [1]
  .data24.rodata   const    0xfff013d0     0xa  font_8x8.o [1]
  .data24.rodata   const    0xfff013da     0xa  font_8x8.o [1]
  .data24.rodata   const    0xfff013e4     0xa  font_8x8.o [1]
  .data24.rodata   const    0xfff013ee     0xa  font_8x8.o [1]
  .data24.rodata   const    0xfff013f8     0xa  font_8x8.o [1]
  .data24.rodata   const    0xfff01402     0xa  font_8x8.o [1]
  .data24.rodata   const    0xfff0140c     0xa  font_8x8.o [1]
  .data24.rodata   const    0xfff01416     0xa  font_8x8.o [1]
  .data24.rodata   const    0xfff01420     0xa  font_8x8.o [1]
  .data24.rodata   const    0xfff0142a     0xa  font_8x8.o [1]
  .data24.rodata   const    0xfff01434     0xa  font_8x8.o [1]
  .data24.rodata   const    0xfff0143e     0xa  font_8x8.o [1]
  .data24.rodata   const    0xfff01448     0xa  font_8x8.o [1]
  .data24.rodata   const    0xfff01452     0xa  font_8x8.o [1]
  .data24.rodata   const    0xfff0145c     0xa  font_8x8.o [1]
  .data24.rodata   const    0xfff01466     0xa  font_8x8.o [1]
  .data24.rodata   const    0xfff01470     0xa  font_8x8.o [1]
  .data24.rodata   const    0xfff0147a     0xa  font_8x8.o [1]
  .data24.rodata   const    0xfff01484     0xa  font_8x8.o [1]
  .data24.rodata   const    0xfff0148e     0xa  font_8x8.o [1]
  .data24.rodata   const    0xfff01498     0xa  font_8x8.o [1]
  .data24.rodata   const    0xfff014a2     0xa  font_8x8.o [1]
  .data24.rodata   const    0xfff014ac     0xa  font_8x8.o [1]
  .data24.rodata   const    0xfff014b6     0xa  font_8x8.o [1]
  .data24.rodata   const    0xfff014c0     0xa  font_8x8.o [1]
  .data24.rodata   const    0xfff014ca     0xa  font_8x8.o [1]
  .data24.rodata   const    0xfff014d4     0xa  font_8x8.o [1]
  .data24.rodata   const    0xfff014de     0xa  font_8x8.o [1]
  .data24.rodata   const    0xfff014e8     0xa  font_8x8.o [1]
  .data24.rodata   const    0xfff014f2     0xa  font_8x8.o [1]
  .data24.rodata   const    0xfff014fc     0xa  font_8x8.o [1]
  .data24.rodata   const    0xfff01506     0xa  font_8x8.o [1]
  .data24.rodata   const    0xfff01510     0xa  font_8x8.o [1]
  .data24.rodata   const    0xfff0151a     0xa  font_8x8.o [1]
  .data24.rodata   const    0xfff01524     0xa  font_8x8.o [1]
  .data24.rodata   const    0xfff0152e     0xa  font_8x8.o [1]
  .data24.rodata   const    0xfff01538     0xa  font_8x8.o [1]
  .data24.rodata   const    0xfff01542     0xa  font_8x8.o [1]
  .data24.rodata   const    0xfff0154c     0xa  font_8x8.o [1]
  .data24.rodata   const    0xfff01556     0xa  font_8x8.o [1]
  .data24.rodata   const    0xfff01560     0xa  font_8x8.o [1]
  .data24.rodata   const    0xfff0156a     0xa  font_8x8.o [1]
  .data24.rodata   const    0xfff01574     0xa  font_8x8.o [1]
  .data24.rodata   const    0xfff0157e     0xa  font_8x8.o [1]
  .data24.rodata   const    0xfff01588     0xa  font_8x8.o [1]
  .data24.rodata   const    0xfff01592     0xa  font_8x8.o [1]
  .data24.rodata   const    0xfff0159c     0xa  font_8x8.o [1]
  .data24.rodata   const    0xfff015a6     0xa  font_8x8.o [1]
  .data24.rodata   const    0xfff015b0     0xa  font_8x8.o [1]
  .data24.rodata   const    0xfff015ba     0xa  font_8x8.o [1]
  .data24.rodata   const    0xfff015c4     0xa  font_8x8.o [1]
  .data24.rodata   const    0xfff015ce     0xa  font_8x8.o [1]
  .data24.rodata   const    0xfff015d8     0xa  font_8x8.o [1]
  .data24.rodata   const    0xfff015e2     0xa  font_8x8.o [1]
  .data24.rodata   const    0xfff015ec     0xa  font_8x8.o [1]
  .data24.rodata   const    0xfff015f6     0xa  font_8x8.o [1]
  .data24.rodata   const    0xfff01600     0xa  font_8x8.o [1]
  .data24.rodata   const    0xfff0160a     0xa  font_8x8.o [1]
  .data24.rodata   const    0xfff01614     0xa  font_8x8.o [1]
  .data24.rodata   const    0xfff0161e     0xa  font_8x8.o [1]
  .data24.rodata   const    0xfff01628     0xa  font_8x8.o [1]
  .data24.rodata   const    0xfff01632     0xa  font_8x8.o [1]
  .data24.rodata   const    0xfff0163c     0xa  font_8x8.o [1]
  .data24.rodata   const    0xfff01646     0xa  font_8x8.o [1]
  .data24.rodata   const    0xfff01650     0xa  font_8x8.o [1]
  .data24.rodata   const    0xfff0165a     0xa  font_8x8.o [1]
  .data24.rodata   const    0xfff01664     0xa  font_8x8.o [1]
  .data24.rodata   const    0xfff0166e     0xa  font_8x8.o [1]
  .data24.rodata   const    0xfff01678     0xa  font_8x8.o [1]
  .data24.rodata   const    0xfff01682     0xa  font_8x8.o [1]
  .data24.rodata   const    0xfff0168c     0xa  font_8x8.o [1]
  .data24.rodata   const    0xfff01696     0xa  font_8x8.o [1]
  .data24.rodata   const    0xfff016a0     0xa  font_8x8.o [1]
  .data24.rodata   const    0xfff016aa     0xa  font_8x8.o [1]
  .data24.rodata   const    0xfff016b4     0xa  font_8x8.o [1]
  .data24.rodata   const    0xfff016be     0xa  font_8x8.o [1]
  .data24.rodata   const    0xfff016c8     0xa  font_8x8.o [1]
  .data24.rodata   const    0xfff016d2     0xa  font_8x8.o [1]
  .data24.rodata   const    0xfff016dc     0xa  font_8x8.o [1]
  .data24.rodata   const    0xfff016e6     0xa  font_8x8.o [1]
  .data24.rodata   const    0xfff016f0     0xa  font_8x8.o [1]
  .data24.rodata   const    0xfff016fa     0xa  font_8x8.o [1]
  .data24.rodata   const    0xfff01704     0xa  font_8x8.o [1]
  .data24.rodata   const    0xfff0170e     0xa  font_8x8.o [1]
  .data24.rodata   const    0xfff01718     0xa  font_8x8.o [1]
  .data24.rodata   const    0xfff01722     0xa  font_8x8.o [1]
  .data24.rodata   const    0xfff0172c     0xa  font_8x8.o [1]
  .data24.rodata   const    0xfff01736     0xa  font_8x8.o [1]
  .data24.rodata   const    0xfff01740     0xa  font_8x8.o [1]
  .data24.rodata   const    0xfff0174a     0xa  font_8x8.o [1]
  .data24.rodata   const    0xfff01754     0xa  font_8x8.o [1]
  .data24.rodata   const    0xfff0175e     0xa  font_8x8.o [1]
  .data24.rodata   const    0xfff01768     0xa  font_8x8.o [1]
  .data24.rodata   const    0xfff01772     0xa  font_8x8.o [1]
  .data24.rodata   const    0xfff0177c     0xa  font_8x8.o [1]
  .data24.rodata   const    0xfff01786     0xa  font_8x8.o [1]
  .data24.rodata   const    0xfff01790     0xa  font_8x8.o [1]
  .data24.rodata   const    0xfff0179a     0xa  font_8x8.o [1]
  .data24.rodata   const    0xfff017a4     0xa  font_8x8.o [1]
  .data24.rodata   const    0xfff017ae     0xa  font_8x8.o [1]
  .data24.rodata   const    0xfff017b8     0xa  font_8x8.o [1]
  .data24.rodata   const    0xfff017c2     0xa  font_8x8.o [1]
  .data24.rodata   const    0xfff017cc     0xa  font_8x8.o [1]
  .data24.rodata   const    0xfff017d6     0xa  font_8x8.o [1]
  .data24.rodata   const    0xfff017e0     0xa  font_8x8.o [1]
  .data24.rodata   const    0xfff017ea     0xa  font_8x8.o [1]
  .data24.rodata   const    0xfff017f4     0xa  font_8x8.o [1]
  .data24.rodata   const    0xfff017fe     0xa  font_8x8.o [1]
  .data24.rodata   const    0xfff01808     0xa  font_8x8.o [1]
  .data24.rodata   const    0xfff01812     0xa  font_8x8.o [1]
  .data24.rodata   const    0xfff0181c     0xa  font_8x8.o [1]
  .data24.rodata   const    0xfff01826     0xa  font_8x8.o [1]
  .data24.rodata   const    0xfff01830     0xa  font_8x8.o [1]
  .data24.rodata   const    0xfff0183a     0xa  font_8x8.o [1]
  .data24.rodata   const    0xfff01844     0xa  font_8x8.o [1]
  .data24.rodata   const    0xfff0184e     0xa  font_8x8.o [1]
  .data24.rodata   const    0xfff01858     0xa  font_8x8.o [1]
  .data24.rodata   const    0xfff01862     0xa  font_8x8.o [1]
  .data24.rodata   const    0xfff0186c     0xa  font_8x8.o [1]
  .data24.rodata   const    0xfff01876     0xa  font_8x8.o [1]
  .data24.rodata   const    0xfff01880     0xa  font_8x8.o [1]
  .data24.rodata   const    0xfff0188a     0xa  font_8x8.o [1]
  .data24.rodata   const    0xfff01894     0xa  font_8x8.o [1]
  .data24.rodata   const    0xfff0189e     0xa  font_8x8.o [1]
  .data24.rodata   const    0xfff018a8     0xa  font_8x8.o [1]
  .data24.rodata   const    0xfff018b2     0xa  font_8x8.o [1]
  .data24.rodata   const    0xfff018bc     0xa  font_8x8.o [1]
  .data24.rodata   const    0xfff018c6     0xa  font_8x8.o [1]
  .data24.rodata   const    0xfff018d0     0xa  font_8x8.o [1]
  .data24.rodata   const    0xfff018da     0xa  font_8x8.o [1]
  .data24.rodata   const    0xfff018e4     0xa  font_8x8.o [1]
  .data24.rodata   const    0xfff018ee     0xa  font_8x8.o [1]
  .data24.rodata   const    0xfff018f8     0xa  font_8x8.o [1]
  .data24.rodata   const    0xfff01902     0xa  font_8x8.o [1]
  .data24.rodata   const    0xfff0190c     0xa  font_8x8.o [1]
  .data24.rodata   const    0xfff01916     0xa  font_8x8.o [1]
  .data24.rodata   const    0xfff01920     0xa  font_8x8.o [1]
  .data24.rodata   const    0xfff0192a     0xa  font_8x8.o [1]
  .data24.rodata   const    0xfff01934     0xa  font_8x8.o [1]
  .data24.rodata   const    0xfff0193e     0xa  font_8x8.o [1]
  .data24.rodata   const    0xfff01948     0xa  font_8x8.o [1]
  .data24.rodata   const    0xfff01952     0xa  font_8x8.o [1]
  .data24.rodata   const    0xfff0195c     0xa  font_8x8.o [1]
  .data24.rodata   const    0xfff01966     0xa  font_8x8.o [1]
  .data24.rodata   const    0xfff01970     0xa  font_8x8.o [1]
  .data24.rodata   const    0xfff0197a     0xa  font_8x8.o [1]
  .data24.rodata   const    0xfff01984     0xa  font_8x8.o [1]
  .data24.rodata   const    0xfff0198e     0xa  font_8x8.o [1]
  .data24.rodata   const    0xfff01998     0xa  font_8x8.o [1]
  .data24.rodata   const    0xfff019a2     0xa  font_8x8.o [1]
  .data24.rodata   const    0xfff019ac     0xa  font_8x8.o [1]
  .data24.rodata   const    0xfff019b6     0xa  font_8x8.o [1]
  .data24.rodata   const    0xfff019c0     0xa  font_8x8.o [1]
  .data24.rodata   const    0xfff019ca     0xa  font_8x8.o [1]
  .data24.rodata   const    0xfff019d4     0xa  ST7579_LCD.o [1]
  .data24.rodata   const    0xfff019de     0x9  exercise8.o [1]
  .data24.rodata   const    0xfff019e7     0x9  os_core.o [1]
  .data24.rodata   const    0xfff019f0     0x9  pushbutton.o [1]
  .data24.rodata   const    0xfff019f9     0x9  pushbutton.o [1]
  .data24.rodata   const    0xfff01a02     0x6  exercise8.o [1]
  .data24.rodata   const    0xfff01a08     0x8  alarm.o [1]
  .data24.rodata   const    0xfff01a10     0x8  alarm.o [1]
  .data24.rodata   const    0xfff01a18     0x8  alarm.o [1]
  .data24.rodata   const    0xfff01a20     0x8  exercise8.o [1]
  .data24.rodata   const    0xfff01a28     0x7  font_x5x7.o [1]
  .data24.rodata   const    0xfff01a2f     0x7  font_x5x7.o [1]
  .data24.rodata   const    0xfff01a36     0x7  font_x5x7.o [1]
  .data24.rodata   const    0xfff01a3d     0x7  font_x5x7.o [1]
  .data24.rodata   const    0xfff01a44     0x7  font_x5x7.o [1]
  .data24.rodata   const    0xfff01a4b     0x7  font_x5x7.o [1]
  .data24.rodata   const    0xfff01a52     0x7  font_x5x7.o [1]
  .data24.rodata   const    0xfff01a59     0x7  font_x5x7.o [1]
  .data24.rodata   const    0xfff01a60     0x7  font_x5x7.o [1]
  .data24.rodata   const    0xfff01a67     0x7  font_x5x7.o [1]
  .data24.rodata   const    0xfff01a6e     0x7  font_x5x7.o [1]
  .data24.rodata   const    0xfff01a75     0x7  font_x5x7.o [1]
  .data24.rodata   const    0xfff01a7c     0x7  font_x5x7.o [1]
  .data24.rodata   const    0xfff01a83     0x7  font_x5x7.o [1]
  .data24.rodata   const    0xfff01a8a     0x7  font_x5x7.o [1]
  .data24.rodata   const    0xfff01a91     0x7  font_x5x7.o [1]
  .data24.rodata   const    0xfff01a98     0x7  font_x5x7.o [1]
  .data24.rodata   const    0xfff01a9f     0x7  font_x5x7.o [1]
  .data24.rodata   const    0xfff01aa6     0x7  font_x5x7.o [1]
  .data24.rodata   const    0xfff01aad     0x7  font_x5x7.o [1]
  .data24.rodata   const    0xfff01ab4     0x7  font_x5x7.o [1]
  .data24.rodata   const    0xfff01abb     0x7  font_x5x7.o [1]
  .data24.rodata   const    0xfff01ac2     0x7  font_x5x7.o [1]
  .data24.rodata   const    0xfff01ac9     0x7  font_x5x7.o [1]
  .data24.rodata   const    0xfff01ad0     0x7  font_x5x7.o [1]
  .data24.rodata   const    0xfff01ad7     0x7  font_x5x7.o [1]
  .data24.rodata   const    0xfff01ade     0x7  font_x5x7.o [1]
  .data24.rodata   const    0xfff01ae5     0x7  font_x5x7.o [1]
  .data24.rodata   const    0xfff01aec     0x7  font_x5x7.o [1]
  .data24.rodata   const    0xfff01af3     0x7  font_x5x7.o [1]
  .data24.rodata   const    0xfff01afa     0x7  font_x5x7.o [1]
  .data24.rodata   const    0xfff01b01     0x7  font_x5x7.o [1]
  .data24.rodata   const    0xfff01b08     0x7  font_x5x7.o [1]
  .data24.rodata   const    0xfff01b0f     0x7  font_x5x7.o [1]
  .data24.rodata   const    0xfff01b16     0x7  font_x5x7.o [1]
  .data24.rodata   const    0xfff01b1d     0x7  font_x5x7.o [1]
  .data24.rodata   const    0xfff01b24     0x7  font_x5x7.o [1]
  .data24.rodata   const    0xfff01b2b     0x7  font_x5x7.o [1]
  .data24.rodata   const    0xfff01b32     0x7  font_x5x7.o [1]
  .data24.rodata   const    0xfff01b39     0x7  font_x5x7.o [1]
  .data24.rodata   const    0xfff01b40     0x7  font_x5x7.o [1]
  .data24.rodata   const    0xfff01b47     0x7  font_x5x7.o [1]
  .data24.rodata   const    0xfff01b4e     0x7  font_x5x7.o [1]
  .data24.rodata   const    0xfff01b55     0x7  font_x5x7.o [1]
  .data24.rodata   const    0xfff01b5c     0x7  font_x5x7.o [1]
  .data24.rodata   const    0xfff01b63     0x7  font_x5x7.o [1]
  .data24.rodata   const    0xfff01b6a     0x7  font_x5x7.o [1]
  .data24.rodata   const    0xfff01b71     0x7  font_x5x7.o [1]
  .data24.rodata   const    0xfff01b78     0x7  font_x5x7.o [1]
  .data24.rodata   const    0xfff01b7f     0x7  font_x5x7.o [1]
  .data24.rodata   const    0xfff01b86     0x7  font_x5x7.o [1]
  .data24.rodata   const    0xfff01b8d     0x7  font_x5x7.o [1]
  .data24.rodata   const    0xfff01b94     0x7  font_x5x7.o [1]
  .data24.rodata   const    0xfff01b9b     0x7  font_x5x7.o [1]
  .data24.rodata   const    0xfff01ba2     0x7  font_x5x7.o [1]
  .data24.rodata   const    0xfff01ba9     0x7  font_x5x7.o [1]
  .data24.rodata   const    0xfff01bb0     0x7  font_x5x7.o [1]
  .data24.rodata   const    0xfff01bb7     0x7  font_x5x7.o [1]
  .data24.rodata   const    0xfff01bbe     0x7  font_x5x7.o [1]
  .data24.rodata   const    0xfff01bc5     0x7  font_x5x7.o [1]
  .data24.rodata   const    0xfff01bcc     0x7  font_x5x7.o [1]
  .data24.rodata   const    0xfff01bd3     0x7  font_x5x7.o [1]
  .data24.rodata   const    0xfff01bda     0x7  font_x5x7.o [1]
  .data24.rodata   const    0xfff01be1     0x7  font_x5x7.o [1]
  .data24.rodata   const    0xfff01be8     0x7  font_x5x7.o [1]
  .data24.rodata   const    0xfff01bef     0x7  font_x5x7.o [1]
  .data24.rodata   const    0xfff01bf6     0x7  font_x5x7.o [1]
  .data24.rodata   const    0xfff01bfd     0x7  font_x5x7.o [1]
  .data24.rodata   const    0xfff01c04     0x7  font_x5x7.o [1]
  .data24.rodata   const    0xfff01c0b     0x7  font_x5x7.o [1]
  .data24.rodata   const    0xfff01c12     0x7  font_x5x7.o [1]
  .data24.rodata   const    0xfff01c19     0x7  font_x5x7.o [1]
  .data24.rodata   const    0xfff01c20     0x7  font_x5x7.o [1]
  .data24.rodata   const    0xfff01c27     0x7  font_x5x7.o [1]
  .data24.rodata   const    0xfff01c2e     0x7  font_x5x7.o [1]
  .data24.rodata   const    0xfff01c35     0x7  font_x5x7.o [1]
  .data24.rodata   const    0xfff01c3c     0x7  font_x5x7.o [1]
  .data24.rodata   const    0xfff01c43     0x7  font_x5x7.o [1]
  .data24.rodata   const    0xfff01c4a     0x7  font_x5x7.o [1]
  .data24.rodata   const    0xfff01c51     0x7  font_x5x7.o [1]
  .data24.rodata   const    0xfff01c58     0x7  font_x5x7.o [1]
  .data24.rodata   const    0xfff01c5f     0x7  font_x5x7.o [1]
  .data24.rodata   const    0xfff01c66     0x7  font_x5x7.o [1]
  .data24.rodata   const    0xfff01c6d     0x7  font_x5x7.o [1]
  .data24.rodata   const    0xfff01c74     0x7  font_x5x7.o [1]
  .data24.rodata   const    0xfff01c7b     0x7  font_x5x7.o [1]
  .data24.rodata   const    0xfff01c82     0x7  font_x5x7.o [1]
  .data24.rodata   const    0xfff01c89     0x7  font_x5x7.o [1]
  .data24.rodata   const    0xfff01c90     0x7  font_x5x7.o [1]
  .data24.rodata   const    0xfff01c97     0x7  font_x5x7.o [1]
  .data24.rodata   const    0xfff01c9e     0x7  font_x5x7.o [1]
  .data24.rodata   const    0xfff01ca5     0x7  font_x5x7.o [1]
  .data24.rodata   const    0xfff01cac     0x7  font_x5x7.o [1]
  .data24.rodata   const    0xfff01cb3     0x7  font_x5x7.o [1]
  .data24.rodata   const    0xfff01cba     0x7  font_x5x7.o [1]
  .data24.rodata   const    0xfff01cc1     0x7  font_x5x7.o [1]
  .data24.rodata   const    0xfff01cc8     0x7  font_x5x7.o [1]
  .data24.rodata   const    0xfff01ccf     0x7  font_x5x7.o [1]
  .data24.rodata   const    0xfff01cd6     0x7  font_x5x7.o [1]
  .data24.rodata   const    0xfff01cdd     0x7  font_x5x7.o [1]
  .data24.rodata   const    0xfff01ce4     0x7  font_x5x7.o [1]
  .data24.rodata   const    0xfff01ceb     0x7  font_x5x7.o [1]
  .data24.rodata   const    0xfff01cf2     0x7  font_x5x7.o [1]
  .data24.rodata   const    0xfff01cf9     0x7  font_x5x7.o [1]
  .data24.rodata   const    0xfff01d00     0x7  font_x5x7.o [1]
  .data24.rodata   const    0xfff01d07     0x7  font_x5x7.o [1]
  .data24.rodata   const    0xfff01d0e     0x7  font_x5x7.o [1]
  .data24.rodata   const    0xfff01d15     0x7  font_x5x7.o [1]
  .data24.rodata   const    0xfff01d1c     0x7  font_x5x7.o [1]
  .data24.rodata   const    0xfff01d23     0x7  font_x5x7.o [1]
  .data24.rodata   const    0xfff01d2a     0x7  font_x5x7.o [1]
  .data24.rodata   const    0xfff01d31     0x7  font_x5x7.o [1]
  .data24.rodata   const    0xfff01d38     0x7  font_x5x7.o [1]
  .data24.rodata   const    0xfff01d3f     0x7  font_x5x7.o [1]
  .data24.rodata   const    0xfff01d46     0x7  font_x5x7.o [1]
  .data24.rodata   const    0xfff01d4d     0x7  font_x5x7.o [1]
  .data24.rodata   const    0xfff01d54     0x7  font_x5x7.o [1]
  .data24.rodata   const    0xfff01d5b     0x7  font_x5x7.o [1]
  .data24.rodata   const    0xfff01d62     0x7  font_x5x7.o [1]
  .data24.rodata   const    0xfff01d69     0x7  font_x5x7.o [1]
  .data24.rodata   const    0xfff01d70     0x7  font_x5x7.o [1]
  .data24.rodata   const    0xfff01d77     0x7  font_x5x7.o [1]
  .data24.rodata   const    0xfff01d7e     0x7  font_x5x7.o [1]
  .data24.rodata   const    0xfff01d85     0x7  font_x5x7.o [1]
  .data24.rodata   const    0xfff01d8c     0x7  font_x5x7.o [1]
  .data24.rodata   const    0xfff01d93     0x7  font_x5x7.o [1]
  .data24.rodata   const    0xfff01d9a     0x7  font_x5x7.o [1]
  .data24.rodata   const    0xfff01da1     0x7  os_core.o [1]
  .data24.rodata   const    0xfff01da8     0x6  os_task.o [1]
  .data24.rodata   const    0xfff01dae     0x5  lib_mem.o [1]
  .data24.rodata   const    0xfff01db3     0x1  os_cfg_app.o [1]
  .data24.rodata   const    0xfff01db4     0x4  adc.o [1]
  .data24.rodata   const    0xfff01db8     0x4  os_cfg_app.o [1]
  .data24.rodata   const    0xfff01dbc     0x4  os_cfg_app.o [1]
  .data24.rodata   const    0xfff01dc0     0x4  os_cfg_app.o [1]
  .data24.rodata   const    0xfff01dc4     0x4  os_cfg_app.o [1]
  .data24.rodata   const    0xfff01dc8     0x4  os_cfg_app.o [1]
  .data24.rodata   const    0xfff01dcc     0x4  os_cfg_app.o [1]
  .data24.rodata   const    0xfff01dd0     0x4  os_cfg_app.o [1]
  .data24.rodata   const    0xfff01dd4     0x4  os_cfg_app.o [1]
  .data24.rodata   const    0xfff01dd8     0x4  os_cfg_app.o [1]
  .data24.rodata   const    0xfff01ddc     0x4  os_cfg_app.o [1]
  .data24.rodata   const    0xfff01de0     0x4  os_cfg_app.o [1]
  .data24.rodata   const    0xfff01de4     0x4  os_cfg_app.o [1]
  .data24.rodata   const    0xfff01de8     0x4  os_cfg_app.o [1]
  .data24.rodata   const    0xfff01dec     0x4  os_cfg_app.o [1]
  .data24.rodata   const    0xfff01df0     0x4  os_cfg_app.o [1]
  .data24.rodata   const    0xfff01df4     0x4  os_cfg_app.o [1]
  .data24.rodata   const    0xfff01df8     0x4  os_cfg_app.o [1]
  .data24.rodata   const    0xfff01dfc     0x4  os_cfg_app.o [1]
  .data24.rodata   const    0xfff01e00     0x4  os_cfg_app.o [1]
  .data24.rodata   const    0xfff01e04     0x4  os_cfg_app.o [1]
  .data24.rodata   const    0xfff01e08     0x4  os_cfg_app.o [1]
  .data24.rodata   const    0xfff01e0c     0x4  os_dbg.o [1]
  .data24.rodata   const    0xfff01e10     0x4  os_dbg.o [1]
  .data24.rodata   const    0xfff01e14     0x4  os_dbg.o [1]
  .data24.rodata   const    0xfff01e18     0x2  alarm.o [1]
  .data24.rodata   const    0xfff01e1a     0x2  exercise8.o [1]
  .data24.rodata   const    0xfff01e1c     0x2  os_cfg_app.o [1]
  .data24.rodata   const    0xfff01e1e     0x2  os_core.o [1]
  .data24.rodata   const    0xfff01e20     0x2  os_dbg.o [1]
  .data24.rodata   const    0xfff01e22     0x2  os_dbg.o [1]
  .data24.rodata   const    0xfff01e24     0x2  os_dbg.o [1]
  .data24.rodata   const    0xfff01e26     0x2  os_dbg.o [1]
  .data24.rodata   const    0xfff01e28     0x2  os_dbg.o [1]
  .data24.rodata   const    0xfff01e2a     0x2  os_dbg.o [1]
  .data24.rodata   const    0xfff01e2c     0x2  os_dbg.o [1]
  .data24.rodata   const    0xfff01e2e     0x2  os_dbg.o [1]
  .data24.rodata   const    0xfff01e30     0x2  os_dbg.o [1]
  .data24.rodata   const    0xfff01e32     0x2  os_dbg.o [1]
  .data24.rodata   const    0xfff01e34     0x2  os_dbg.o [1]
  .data24.rodata   const    0xfff01e36     0x2  os_dbg.o [1]
  .data24.rodata   const    0xfff01e38     0x2  os_dbg.o [1]
  .data24.rodata   const    0xfff01e3a     0x2  os_dbg.o [1]
  .data24.rodata   const    0xfff01e3c     0x2  os_dbg.o [1]
  .data24.rodata   const    0xfff01e3e     0x2  os_dbg.o [1]
  .data24.rodata   const    0xfff01e40     0x2  os_dbg.o [1]
  .data24.rodata   const    0xfff01e42     0x2  os_dbg.o [1]
  .data24.rodata   const    0xfff01e44     0x2  os_dbg.o [1]
  .data24.rodata   const    0xfff01e46     0x2  os_dbg.o [1]
  .data24.rodata   const    0xfff01e48     0x2  os_flag.o [1]
  .data24.rodata   const    0xfff01e4a     0x2  os_mutex.o [1]
  .data24.rodata   const    0xfff01e4c     0x2  os_q.o [1]
  .data24.rodata   const    0xfff01e4e     0x2  os_sem.o [1]
  .data24.rodata   const    0xfff01e50     0x2  os_task.o [1]
  .data24.rodata   const    0xfff01e52     0x1  os_cfg_app.o [1]
  .data24.rodata   const    0xfff01e53     0x1  os_dbg.o [1]
  .data24.rodata   const    0xfff01e54     0x1  os_dbg.o [1]
  .data24.rodata   const    0xfff01e55     0x1  os_dbg.o [1]
  .data24.rodata   const    0xfff01e56     0x1  os_dbg.o [1]
  .data24.rodata   const    0xfff01e57     0x1  os_dbg.o [1]
  .data24.rodata   const    0xfff01e58     0x1  os_dbg.o [1]
  .data24.rodata   const    0xfff01e59     0x1  os_dbg.o [1]
  .data24.rodata   const    0xfff01e5a     0x1  os_dbg.o [1]
  .data24.rodata   const    0xfff01e5b     0x1  os_dbg.o [1]
  .data24.rodata   const    0xfff01e5c     0x1  os_dbg.o [1]
  .data24.rodata   const    0xfff01e5d     0x1  os_dbg.o [1]
  .data24.rodata   const    0xfff01e5e     0x1  os_dbg.o [1]
  .data24.rodata   const    0xfff01e5f     0x1  os_dbg.o [1]
  .data24.rodata   const    0xfff01e60     0x1  os_dbg.o [1]
  .data24.rodata   const    0xfff01e61     0x1  os_dbg.o [1]
  .data24.rodata   const    0xfff01e62     0x1  os_dbg.o [1]
  .data24.rodata   const    0xfff01e63     0x1  os_dbg.o [1]
  .data24.rodata   const    0xfff01e64     0x1  os_dbg.o [1]
  .data24.rodata   const    0xfff01e65     0x1  os_dbg.o [1]
  .data24.rodata   const    0xfff01e66     0x1  os_dbg.o [1]
  .data24.rodata   const    0xfff01e67     0x1  os_dbg.o [1]
  .data24.rodata   const    0xfff01e68     0x1  os_dbg.o [1]
  .data24.rodata   const    0xfff01e69     0x1  os_dbg.o [1]
  .data24.rodata   const    0xfff01e6a     0x1  os_dbg.o [1]
  .data24.rodata   const    0xfff01e6b     0x1  os_dbg.o [1]
  .data24.rodata   const    0xfff01e6c     0x1  os_dbg.o [1]
  .data24.rodata   const    0xfff01e6d     0x1  os_dbg.o [1]
  .data24.rodata   const    0xfff01e6e     0x1  os_dbg.o [1]
  .data24.rodata   const    0xfff01e6f     0x1  os_dbg.o [1]
  .data24.rodata   const    0xfff01e70     0x1  os_dbg.o [1]
  .data24.rodata   const    0xfff01e71     0x1  os_dbg.o [1]
  .data24.rodata   const    0xfff01e72     0x1  os_dbg.o [1]
  .data24.rodata   const    0xfff01e73     0x1  os_dbg.o [1]
  .data24.rodata   const    0xfff01e74     0x1  os_dbg.o [1]
  .data24.rodata   const    0xfff01e75     0x1  os_dbg.o [1]
  .data24.rodata   const    0xfff01e76     0x1  os_dbg.o [1]
  .data24.rodata   const    0xfff01e77     0x1  os_dbg.o [1]
  .data24.rodata   const    0xfff01e78     0x1  os_dbg.o [1]
  .data24.rodata   const    0xfff01e79     0x1  os_dbg.o [1]
                          - 0xfff01e7a  0x1e7a

"ROM32":                                0x64b5
  .text            ro code  0xfff01e7a   0xb50  os_core.o [1]
  .text            ro code  0xfff029ca   0x482  os_tick.o [1]
  .text            ro code  0xfff02e4c   0x322  cpu_core.o [1]
  .text            ro code  0xfff0316e    0x82  cpu_bsp.o [1]
  .text            ro code  0xfff031f0    0xa6  os_prio.o [1]
  .text            ro code  0xfff03296   0x836  os_task.o [1]
  .text            ro code  0xfff03acc   0x1ff  os_cpu_c.o [1]
  .text            ro code  0xfff03ccb    0xa1  os_cpu_a.o [1]
  .text            ro code  0xfff03d6c   0x5e2  os_flag.o [1]
  .text            ro code  0xfff0434e   0x21f  os_msg.o [1]
  .text            ro code  0xfff0456d   0x499  os_mutex.o [1]
  .text            ro code  0xfff04a06   0x317  os_q.o [1]
  .text            ro code  0xfff04d1d   0x324  os_sem.o [1]
  .text            ro code  0xfff05041   0x214  os_tmr.o [1]
  .text            ro code  0xfff05255   0x155  os_dbg.o [1]
  .text            ro code  0xfff053aa    0x79  os_cfg_app.o [1]
  .text            ro code  0xfff05423   0x1f4  lib_mem.o [1]
  .text            ro code  0xfff05617    0xf1  bsp_sys.o [1]
  .text            ro code  0xfff05708   0x814  ST7579_LCD.o [1]
  .text            ro code  0xfff05f1c   0x4a2  xprintfsmall.o [4]
  .text            ro code  0xfff063be    0x13  strchr.o [4]
  .text            ro code  0xfff063d1     0xf  strlen.o [4]
  .text            ro code  0xfff063e0    0x16  memchr.o [4]
  .text            ro code  0xfff063f6   0x430  alarm.o [1]
  .text            ro code  0xfff06826    0x89  xassert.o [4]
  .text            ro code  0xfff068af   0x169  os_time.o [1]
  .text            ro code  0xfff06a18    0x87  xreportassert.o [4]
  .text            ro code  0xfff06a9f     0xf  __dbg_abort.o [3]
  .text            ro code  0xfff06aae    0x25  putchar.o [4]
  .text            ro code  0xfff06ad3     0x1  __dbg_break.o [3]
  .text            ro code  0xfff06ad4    0x12  __dbg_xxexit.o [3]
  .text            ro code  0xfff06ae6     0xa  __dbg_xxwrite.o [3]
  .text            ro code  0xfff06af0    0x15  __dbg_xxdwrite.o [3]
  .inttable                 0xfff06b08   0x400  <Block>
    .inttable      const    0xfff06b08   0x400  interrupt_table.o [4]
  .text            ro code  0xfff06f08   0x3a1  exercise8.o [1]
  .text            ro code  0xfff072a9   0x206  interrupts.o [1]
  .text            ro code  0xfff074af    0x15  bsp.o [1]
  .text            ro code  0xfff074c4    0xb8  bsp_glcd.o [1]
  .text            ro code  0xfff0757c   0x38a  bsp_led.o [1]
  .text            ro code  0xfff07906    0xc8  os_bsp.o [1]
  .text            ro code  0xfff079ce    0xd0  bsp_misc.o [1]
  .text            ro code  0xfff07a9e    0x48  bsp_os.o [1]
  .text            ro code  0xfff07ae6   0x100  Glyph.o [1]
  .text            ro code  0xfff07be6    0x2e  lib_str.o [1]
  .text            ro code  0xfff07c14    0x6c  GlyphRegister.o [1]
  .text            ro code  0xfff07c80   0x1e5  YRDKRX63N_RSPI0.o [1]
  .text            ro code  0xfff07e65   0x17b  adc.o [1]
  .text            ro code  0xfff07fe0    0x2e  sprintf.o [4]
  .text            ro code  0xfff0800e   0x11e  pushbutton.o [1]
  .text            ro code  0xfff0812c    0x46  adcisr.o [1]
  .text            ro code  0xfff08172     0x2  def_nmi_handlers.o [4]
  .switch.rodata   const    0xfff08174    0x2c  ST7579_LCD.o [1]
  .switch.rodata   const    0xfff081a0    0x2a  ST7579_LCD.o [1]
  .switch.rodata   const    0xfff081cc    0x24  ST7579_LCD.o [1]
  .text            ro code  0xfff081f0    0x22  cstartup.o [1]
  .text            ro code  0xfff08212    0x15  data_init2.o [4]
  .text            ro code  0xfff08227     0x4  exit.o [4]
  .text            ro code  0xfff0822b     0x8  cexit.o [4]
  .iar.init_table  const    0xfff08234    0x10  - Linker created -
  .switch.rodata   const    0xfff08244    0x20  bsp_led.o [1]
  .switch.rodata   const    0xfff08264    0x20  bsp_led.o [1]
  .text            ro code  0xfff08284    0x20  interrupt_table.o [4]
  .text            ro code  0xfff082a4    0x18  zero_init2.o [4]
  .switch.rodata   const    0xfff082bc    0x10  os_core.o [1]
  .switch.rodata   const    0xfff082cc    0x10  os_task.o [1]
  .switch.rodata   const    0xfff082dc    0x10  os_task.o [1]
  .switch.rodata   const    0xfff082ec    0x10  os_task.o [1]
  .switch.rodata   const    0xfff082fc     0xe  xprintfsmall.o [4]
  .text            ro code  0xfff0830a     0xb  xsprout.o [4]
  .switch.rodata   const    0xfff08318     0x8  os_flag.o [1]
  .switch.rodata   const    0xfff08320     0x8  os_task.o [1]
  .switch.rodata   const    0xfff08328     0x7  bsp_sys.o [1]
                          - 0xfff0832f  0x64b5

"ROM16":                                  0x32
  .data16.rodata   const    0xffff8000    0x16  xreportassert.o [4]
  .data16.rodata   const    0xffff8016     0xd  xreportassert.o [4]
  .data16.rodata   const    0xffff8023     0x6  xprintfsmall.o [4]
  .data16.rodata   const    0xffff8029     0x5  xreportassert.o [4]
  .data16.rodata   const    0xffff802e     0x2  xreportassert.o [4]
  .data16.rodata   const    0xffff8030     0x2  xreportassert.o [4]
                          - 0xffff8032    0x32

"A1":                                     0x80
  .nmivec          const    0xffffff80    0x80  nmivec.o [4]
                          - 0x00000000    0x80


*******************************************************************************
*** INIT TABLE
***

          Address     Size
          -------     ----
Zero (___iar_zero_init2)
    1 destination range, total size 0x7cc2:
          0x00000004  0x7cc2



*******************************************************************************
*** MODULE SUMMARY
***

    Module              ro code  ro data  rw data
    ------              -------  -------  -------
C:\Embed_v2\Exercises\HandsOn\Exercise8\Debug\Obj: [1]
    Glyph.o                 256               108
    GlyphRegister.o         108
    ST7579_LCD.o          2 068      132
    YRDKRX63N_RSPI0.o       485
    adc.o                   379       94       52
    adcisr.o                 70
    alarm.o               1 072      106      708
    bsp.o                    21
    bsp_glcd.o              184                 4
    bsp_led.o               906       64
    bsp_misc.o              208
    bsp_os.o                 72       11       48
    bsp_sys.o               241        7
    cpu_bsp.o               130
    cpu_core.o              802      256       40
    cstartup.o               34
    exercise8.o             929      238    5 832
    font_8x8.o                     3 584
    font_x5x7.o                    1 913
    interrupts.o            518    1 024
    lib_mem.o               500        5   20 504
    lib_str.o                46
    os_bsp.o                200
    os_cfg_app.o            121       88    3 648
    os_core.o             2 896       54
    os_cpu_a.o              161
    os_cpu_c.o              511                 4
    os_dbg.o                341      347
    os_flag.o             1 506       10
    os_msg.o                543
    os_mutex.o            1 177        2
    os_prio.o               166                 4
    os_q.o                  791        2
    os_sem.o                804        2
    os_task.o             2 102       64
    os_tick.o             1 154       20
    os_time.o               361
    os_tmr.o                532       34
    os_var.o                                  982
    pushbutton.o            286       18        4
    ---------------------------------------------
    Total:               22 681    8 075   31 938

command line: [2]
    ---------------------------------------------
    Total:

dbgrxlld.a: [3]
    __dbg_abort.o            15
    __dbg_break.o             1
    __dbg_xxdwrite.o         21
    __dbg_xxexit.o           18
    __dbg_xxwrite.o          10
    ---------------------------------------------
    Total:                   65

dlrxflln.a: [4]
    cexit.o                   8
    data_init2.o             21
    def_nmi_handlers.o        2
    exit.o                    4
    interrupt_table.o        32    1 024
    memchr.o                 22
    nmivec.o                         128
    putchar.o                37
    sprintf.o                46
    strchr.o                 19
    strlen.o                 15
    xassert.o               137
    xprintfsmall.o        1 186       20
    xreportassert.o         135       44
    xsprout.o                11
    zero_init2.o             24
    ---------------------------------------------
    Total:                1 699    1 216

    Gaps                               6
    Linker created                    16      512
-------------------------------------------------
    Grand Total:         24 445    9 313   32 450


*******************************************************************************
*** ENTRY LIST
***

Entry                      Address    Size  Type      Object
-----                      -------    ----  ----      ------
.inttable$$Base         0xfff06b08           --   Gb  - Linker created -
.inttable$$Limit        0xfff06f08           --   Gb  - Linker created -
ISTACK$$Base            0x00007cc8           --   Gb  - Linker created -
ISTACK$$Limit           0x00007ec8           --   Gb  - Linker created -
Region$$Table$$Base     0xfff08234           --   Gb  - Linker created -
Region$$Table$$Limit    0xfff08244           --   Gb  - Linker created -
STACKS$$Base            0x00007cc8           --   Gb  - Linker created -
STACKS$$Limit           0x00007ec8           --   Gb  - Linker created -
_AdcIsr                 0xfff0812c          Code  Gb  adcisr.o [1]
_BSP_GraphLCD           0x00007c18     0x4  Data  Lc  bsp_glcd.o [1]
_BSP_GraphLCD_Init      0xfff07538    0x44  Code  Gb  bsp_glcd.o [1]
_BSP_GraphLCD_SetFont   0xfff074ff    0x39  Code  Gb  bsp_glcd.o [1]
_BSP_GraphLCD_String    0xfff074c4    0x3b  Code  Gb  bsp_glcd.o [1]
_BSP_Init               0xfff074af    0x15  Code  Gb  bsp.o [1]
_BSP_IntHandler_000     0xfff074a1     0x2  Code  Gb  interrupts.o [1]
_BSP_IntHandler_001     0xfff0749f     0x2  Code  Gb  interrupts.o [1]
_BSP_IntHandler_002     0xfff0749d     0x2  Code  Gb  interrupts.o [1]
_BSP_IntHandler_003     0xfff0749b     0x2  Code  Gb  interrupts.o [1]
_BSP_IntHandler_004     0xfff07499     0x2  Code  Gb  interrupts.o [1]
_BSP_IntHandler_005     0xfff07497     0x2  Code  Gb  interrupts.o [1]
_BSP_IntHandler_006     0xfff07495     0x2  Code  Gb  interrupts.o [1]
_BSP_IntHandler_007     0xfff07493     0x2  Code  Gb  interrupts.o [1]
_BSP_IntHandler_008     0xfff07491     0x2  Code  Gb  interrupts.o [1]
_BSP_IntHandler_009     0xfff0748f     0x2  Code  Gb  interrupts.o [1]
_BSP_IntHandler_010     0xfff0748d     0x2  Code  Gb  interrupts.o [1]
_BSP_IntHandler_011     0xfff0748b     0x2  Code  Gb  interrupts.o [1]
_BSP_IntHandler_012     0xfff07489     0x2  Code  Gb  interrupts.o [1]
_BSP_IntHandler_013     0xfff07487     0x2  Code  Gb  interrupts.o [1]
_BSP_IntHandler_014     0xfff07485     0x2  Code  Gb  interrupts.o [1]
_BSP_IntHandler_015     0xfff07483     0x2  Code  Gb  interrupts.o [1]
_BSP_IntHandler_016     0xfff07481     0x2  Code  Gb  interrupts.o [1]
_BSP_IntHandler_017     0xfff0747f     0x2  Code  Gb  interrupts.o [1]
_BSP_IntHandler_018     0xfff0747d     0x2  Code  Gb  interrupts.o [1]
_BSP_IntHandler_019     0xfff0747b     0x2  Code  Gb  interrupts.o [1]
_BSP_IntHandler_020     0xfff07479     0x2  Code  Gb  interrupts.o [1]
_BSP_IntHandler_021     0xfff07477     0x2  Code  Gb  interrupts.o [1]
_BSP_IntHandler_022     0xfff07475     0x2  Code  Gb  interrupts.o [1]
_BSP_IntHandler_023     0xfff07473     0x2  Code  Gb  interrupts.o [1]
_BSP_IntHandler_024     0xfff07471     0x2  Code  Gb  interrupts.o [1]
_BSP_IntHandler_025     0xfff0746f     0x2  Code  Gb  interrupts.o [1]
_BSP_IntHandler_026     0xfff0746d     0x2  Code  Gb  interrupts.o [1]
_BSP_IntHandler_029     0xfff0746b     0x2  Code  Gb  interrupts.o [1]
_BSP_IntHandler_030     0xfff07469     0x2  Code  Gb  interrupts.o [1]
_BSP_IntHandler_031     0xfff07467     0x2  Code  Gb  interrupts.o [1]
_BSP_IntHandler_032     0xfff07465     0x2  Code  Gb  interrupts.o [1]
_BSP_IntHandler_033     0xfff07463     0x2  Code  Gb  interrupts.o [1]
_BSP_IntHandler_034     0xfff07461     0x2  Code  Gb  interrupts.o [1]
_BSP_IntHandler_035     0xfff0745f     0x2  Code  Gb  interrupts.o [1]
_BSP_IntHandler_036     0xfff0745d     0x2  Code  Gb  interrupts.o [1]
_BSP_IntHandler_037     0xfff0745b     0x2  Code  Gb  interrupts.o [1]
_BSP_IntHandler_038     0xfff07459     0x2  Code  Gb  interrupts.o [1]
_BSP_IntHandler_039     0xfff07457     0x2  Code  Gb  interrupts.o [1]
_BSP_IntHandler_040     0xfff07455     0x2  Code  Gb  interrupts.o [1]
_BSP_IntHandler_041     0xfff07453     0x2  Code  Gb  interrupts.o [1]
_BSP_IntHandler_042     0xfff07451     0x2  Code  Gb  interrupts.o [1]
_BSP_IntHandler_043     0xfff0744f     0x2  Code  Gb  interrupts.o [1]
_BSP_IntHandler_044     0xfff0744d     0x2  Code  Gb  interrupts.o [1]
_BSP_IntHandler_045     0xfff0744b     0x2  Code  Gb  interrupts.o [1]
_BSP_IntHandler_046     0xfff07449     0x2  Code  Gb  interrupts.o [1]
_BSP_IntHandler_047     0xfff07447     0x2  Code  Gb  interrupts.o [1]
_BSP_IntHandler_048     0xfff07445     0x2  Code  Gb  interrupts.o [1]
_BSP_IntHandler_049     0xfff07443     0x2  Code  Gb  interrupts.o [1]
_BSP_IntHandler_050     0xfff07441     0x2  Code  Gb  interrupts.o [1]
_BSP_IntHandler_051     0xfff0743f     0x2  Code  Gb  interrupts.o [1]
_BSP_IntHandler_052     0xfff0743d     0x2  Code  Gb  interrupts.o [1]
_BSP_IntHandler_053     0xfff0743b     0x2  Code  Gb  interrupts.o [1]
_BSP_IntHandler_054     0xfff07439     0x2  Code  Gb  interrupts.o [1]
_BSP_IntHandler_055     0xfff07437     0x2  Code  Gb  interrupts.o [1]
_BSP_IntHandler_056     0xfff07435     0x2  Code  Gb  interrupts.o [1]
_BSP_IntHandler_057     0xfff07433     0x2  Code  Gb  interrupts.o [1]
_BSP_IntHandler_058     0xfff07431     0x2  Code  Gb  interrupts.o [1]
_BSP_IntHandler_059     0xfff0742f     0x2  Code  Gb  interrupts.o [1]
_BSP_IntHandler_060     0xfff0742d     0x2  Code  Gb  interrupts.o [1]
_BSP_IntHandler_061     0xfff0742b     0x2  Code  Gb  interrupts.o [1]
_BSP_IntHandler_062     0xfff07429     0x2  Code  Gb  interrupts.o [1]
_BSP_IntHandler_063     0xfff07427     0x2  Code  Gb  interrupts.o [1]
_BSP_IntHandler_064     0xfff07425     0x2  Code  Gb  interrupts.o [1]
_BSP_IntHandler_065     0xfff07423     0x2  Code  Gb  interrupts.o [1]
_BSP_IntHandler_066     0xfff07421     0x2  Code  Gb  interrupts.o [1]
_BSP_IntHandler_067     0xfff0741f     0x2  Code  Gb  interrupts.o [1]
_BSP_IntHandler_068     0xfff0741d     0x2  Code  Gb  interrupts.o [1]
_BSP_IntHandler_069     0xfff0741b     0x2  Code  Gb  interrupts.o [1]
_BSP_IntHandler_070     0xfff07419     0x2  Code  Gb  interrupts.o [1]
_BSP_IntHandler_071     0xfff07417     0x2  Code  Gb  interrupts.o [1]
_BSP_IntHandler_072     0xfff07415     0x2  Code  Gb  interrupts.o [1]
_BSP_IntHandler_073     0xfff07413     0x2  Code  Gb  interrupts.o [1]
_BSP_IntHandler_074     0xfff07411     0x2  Code  Gb  interrupts.o [1]
_BSP_IntHandler_075     0xfff0740f     0x2  Code  Gb  interrupts.o [1]
_BSP_IntHandler_076     0xfff0740d     0x2  Code  Gb  interrupts.o [1]
_BSP_IntHandler_077     0xfff0740b     0x2  Code  Gb  interrupts.o [1]
_BSP_IntHandler_078     0xfff07409     0x2  Code  Gb  interrupts.o [1]
_BSP_IntHandler_079     0xfff07407     0x2  Code  Gb  interrupts.o [1]
_BSP_IntHandler_080     0xfff07405     0x2  Code  Gb  interrupts.o [1]
_BSP_IntHandler_081     0xfff07403     0x2  Code  Gb  interrupts.o [1]
_BSP_IntHandler_082     0xfff07401     0x2  Code  Gb  interrupts.o [1]
_BSP_IntHandler_083     0xfff073ff     0x2  Code  Gb  interrupts.o [1]
_BSP_IntHandler_084     0xfff073fd     0x2  Code  Gb  interrupts.o [1]
_BSP_IntHandler_085     0xfff073fb     0x2  Code  Gb  interrupts.o [1]
_BSP_IntHandler_086     0xfff073f9     0x2  Code  Gb  interrupts.o [1]
_BSP_IntHandler_087     0xfff073f7     0x2  Code  Gb  interrupts.o [1]
_BSP_IntHandler_088     0xfff073f5     0x2  Code  Gb  interrupts.o [1]
_BSP_IntHandler_089     0xfff073f3     0x2  Code  Gb  interrupts.o [1]
_BSP_IntHandler_090     0xfff073f1     0x2  Code  Gb  interrupts.o [1]
_BSP_IntHandler_091     0xfff073ef     0x2  Code  Gb  interrupts.o [1]
_BSP_IntHandler_092     0xfff073ed     0x2  Code  Gb  interrupts.o [1]
_BSP_IntHandler_093     0xfff073eb     0x2  Code  Gb  interrupts.o [1]
_BSP_IntHandler_094     0xfff073e9     0x2  Code  Gb  interrupts.o [1]
_BSP_IntHandler_095     0xfff073e7     0x2  Code  Gb  interrupts.o [1]
_BSP_IntHandler_096     0xfff073e5     0x2  Code  Gb  interrupts.o [1]
_BSP_IntHandler_097     0xfff073e3     0x2  Code  Gb  interrupts.o [1]
_BSP_IntHandler_098     0xfff073e1     0x2  Code  Gb  interrupts.o [1]
_BSP_IntHandler_099     0xfff073df     0x2  Code  Gb  interrupts.o [1]
_BSP_IntHandler_100     0xfff073dd     0x2  Code  Gb  interrupts.o [1]
_BSP_IntHandler_101     0xfff073db     0x2  Code  Gb  interrupts.o [1]
_BSP_IntHandler_103     0xfff073d9     0x2  Code  Gb  interrupts.o [1]
_BSP_IntHandler_104     0xfff073d7     0x2  Code  Gb  interrupts.o [1]
_BSP_IntHandler_105     0xfff073d5     0x2  Code  Gb  interrupts.o [1]
_BSP_IntHandler_106     0xfff073d3     0x2  Code  Gb  interrupts.o [1]
_BSP_IntHandler_107     0xfff073d1     0x2  Code  Gb  interrupts.o [1]
_BSP_IntHandler_108     0xfff073cf     0x2  Code  Gb  interrupts.o [1]
_BSP_IntHandler_109     0xfff073cd     0x2  Code  Gb  interrupts.o [1]
_BSP_IntHandler_110     0xfff073cb     0x2  Code  Gb  interrupts.o [1]
_BSP_IntHandler_111     0xfff073c9     0x2  Code  Gb  interrupts.o [1]
_BSP_IntHandler_112     0xfff073c7     0x2  Code  Gb  interrupts.o [1]
_BSP_IntHandler_113     0xfff073c5     0x2  Code  Gb  interrupts.o [1]
_BSP_IntHandler_114     0xfff073c3     0x2  Code  Gb  interrupts.o [1]
_BSP_IntHandler_115     0xfff073c1     0x2  Code  Gb  interrupts.o [1]
_BSP_IntHandler_116     0xfff073bf     0x2  Code  Gb  interrupts.o [1]
_BSP_IntHandler_117     0xfff073bd     0x2  Code  Gb  interrupts.o [1]
_BSP_IntHandler_118     0xfff073bb     0x2  Code  Gb  interrupts.o [1]
_BSP_IntHandler_119     0xfff073b9     0x2  Code  Gb  interrupts.o [1]
_BSP_IntHandler_120     0xfff073b7     0x2  Code  Gb  interrupts.o [1]
_BSP_IntHandler_121     0xfff073b5     0x2  Code  Gb  interrupts.o [1]
_BSP_IntHandler_122     0xfff073b3     0x2  Code  Gb  interrupts.o [1]
_BSP_IntHandler_123     0xfff073b1     0x2  Code  Gb  interrupts.o [1]
_BSP_IntHandler_124     0xfff073af     0x2  Code  Gb  interrupts.o [1]
_BSP_IntHandler_125     0xfff073ad     0x2  Code  Gb  interrupts.o [1]
_BSP_IntHandler_126     0xfff073ab     0x2  Code  Gb  interrupts.o [1]
_BSP_IntHandler_127     0xfff073a9     0x2  Code  Gb  interrupts.o [1]
_BSP_IntHandler_128     0xfff073a7     0x2  Code  Gb  interrupts.o [1]
_BSP_IntHandler_129     0xfff073a5     0x2  Code  Gb  interrupts.o [1]
_BSP_IntHandler_130     0xfff073a3     0x2  Code  Gb  interrupts.o [1]
_BSP_IntHandler_131     0xfff073a1     0x2  Code  Gb  interrupts.o [1]
_BSP_IntHandler_132     0xfff0739f     0x2  Code  Gb  interrupts.o [1]
_BSP_IntHandler_133     0xfff0739d     0x2  Code  Gb  interrupts.o [1]
_BSP_IntHandler_134     0xfff0739b     0x2  Code  Gb  interrupts.o [1]
_BSP_IntHandler_135     0xfff07399     0x2  Code  Gb  interrupts.o [1]
_BSP_IntHandler_136     0xfff07397     0x2  Code  Gb  interrupts.o [1]
_BSP_IntHandler_137     0xfff07395     0x2  Code  Gb  interrupts.o [1]
_BSP_IntHandler_138     0xfff07393     0x2  Code  Gb  interrupts.o [1]
_BSP_IntHandler_139     0xfff07391     0x2  Code  Gb  interrupts.o [1]
_BSP_IntHandler_140     0xfff0738f     0x2  Code  Gb  interrupts.o [1]
_BSP_IntHandler_141     0xfff0738d     0x2  Code  Gb  interrupts.o [1]
_BSP_IntHandler_142     0xfff0738b     0x2  Code  Gb  interrupts.o [1]
_BSP_IntHandler_143     0xfff07389     0x2  Code  Gb  interrupts.o [1]
_BSP_IntHandler_144     0xfff07387     0x2  Code  Gb  interrupts.o [1]
_BSP_IntHandler_145     0xfff07385     0x2  Code  Gb  interrupts.o [1]
_BSP_IntHandler_146     0xfff07383     0x2  Code  Gb  interrupts.o [1]
_BSP_IntHandler_147     0xfff07381     0x2  Code  Gb  interrupts.o [1]
_BSP_IntHandler_148     0xfff0737f     0x2  Code  Gb  interrupts.o [1]
_BSP_IntHandler_149     0xfff0737d     0x2  Code  Gb  interrupts.o [1]
_BSP_IntHandler_150     0xfff0737b     0x2  Code  Gb  interrupts.o [1]
_BSP_IntHandler_151     0xfff07379     0x2  Code  Gb  interrupts.o [1]
_BSP_IntHandler_152     0xfff07377     0x2  Code  Gb  interrupts.o [1]
_BSP_IntHandler_153     0xfff07375     0x2  Code  Gb  interrupts.o [1]
_BSP_IntHandler_154     0xfff07373     0x2  Code  Gb  interrupts.o [1]
_BSP_IntHandler_155     0xfff07371     0x2  Code  Gb  interrupts.o [1]
_BSP_IntHandler_156     0xfff0736f     0x2  Code  Gb  interrupts.o [1]
_BSP_IntHandler_157     0xfff0736d     0x2  Code  Gb  interrupts.o [1]
_BSP_IntHandler_158     0xfff0736b     0x2  Code  Gb  interrupts.o [1]
_BSP_IntHandler_159     0xfff07369     0x2  Code  Gb  interrupts.o [1]
_BSP_IntHandler_160     0xfff07367     0x2  Code  Gb  interrupts.o [1]
_BSP_IntHandler_161     0xfff07365     0x2  Code  Gb  interrupts.o [1]
_BSP_IntHandler_162     0xfff07363     0x2  Code  Gb  interrupts.o [1]
_BSP_IntHandler_163     0xfff07361     0x2  Code  Gb  interrupts.o [1]
_BSP_IntHandler_164     0xfff0735f     0x2  Code  Gb  interrupts.o [1]
_BSP_IntHandler_165     0xfff0735d     0x2  Code  Gb  interrupts.o [1]
_BSP_IntHandler_166     0xfff0735b     0x2  Code  Gb  interrupts.o [1]
_BSP_IntHandler_167     0xfff07359     0x2  Code  Gb  interrupts.o [1]
_BSP_IntHandler_168     0xfff07357     0x2  Code  Gb  interrupts.o [1]
_BSP_IntHandler_169     0xfff07355     0x2  Code  Gb  interrupts.o [1]
_BSP_IntHandler_170     0xfff07353     0x2  Code  Gb  interrupts.o [1]
_BSP_IntHandler_171     0xfff07351     0x2  Code  Gb  interrupts.o [1]
_BSP_IntHandler_172     0xfff0734f     0x2  Code  Gb  interrupts.o [1]
_BSP_IntHandler_173     0xfff0734d     0x2  Code  Gb  interrupts.o [1]
_BSP_IntHandler_174     0xfff0734b     0x2  Code  Gb  interrupts.o [1]
_BSP_IntHandler_175     0xfff07349     0x2  Code  Gb  interrupts.o [1]
_BSP_IntHandler_176     0xfff07347     0x2  Code  Gb  interrupts.o [1]
_BSP_IntHandler_177     0xfff07345     0x2  Code  Gb  interrupts.o [1]
_BSP_IntHandler_178     0xfff07343     0x2  Code  Gb  interrupts.o [1]
_BSP_IntHandler_179     0xfff07341     0x2  Code  Gb  interrupts.o [1]
_BSP_IntHandler_180     0xfff0733f     0x2  Code  Gb  interrupts.o [1]
_BSP_IntHandler_181     0xfff0733d     0x2  Code  Gb  interrupts.o [1]
_BSP_IntHandler_182     0xfff0733b     0x2  Code  Gb  interrupts.o [1]
_BSP_IntHandler_183     0xfff07339     0x2  Code  Gb  interrupts.o [1]
_BSP_IntHandler_184     0xfff07337     0x2  Code  Gb  interrupts.o [1]
_BSP_IntHandler_185     0xfff07335     0x2  Code  Gb  interrupts.o [1]
_BSP_IntHandler_186     0xfff07333     0x2  Code  Gb  interrupts.o [1]
_BSP_IntHandler_187     0xfff07331     0x2  Code  Gb  interrupts.o [1]
_BSP_IntHandler_188     0xfff0732f     0x2  Code  Gb  interrupts.o [1]
_BSP_IntHandler_189     0xfff0732d     0x2  Code  Gb  interrupts.o [1]
_BSP_IntHandler_190     0xfff0732b     0x2  Code  Gb  interrupts.o [1]
_BSP_IntHandler_191     0xfff07329     0x2  Code  Gb  interrupts.o [1]
_BSP_IntHandler_192     0xfff07327     0x2  Code  Gb  interrupts.o [1]
_BSP_IntHandler_193     0xfff07325     0x2  Code  Gb  interrupts.o [1]
_BSP_IntHandler_194     0xfff07323     0x2  Code  Gb  interrupts.o [1]
_BSP_IntHandler_195     0xfff07321     0x2  Code  Gb  interrupts.o [1]
_BSP_IntHandler_196     0xfff0731f     0x2  Code  Gb  interrupts.o [1]
_BSP_IntHandler_197     0xfff0731d     0x2  Code  Gb  interrupts.o [1]
_BSP_IntHandler_198     0xfff0731b     0x2  Code  Gb  interrupts.o [1]
_BSP_IntHandler_199     0xfff07319     0x2  Code  Gb  interrupts.o [1]
_BSP_IntHandler_200     0xfff07317     0x2  Code  Gb  interrupts.o [1]
_BSP_IntHandler_201     0xfff07315     0x2  Code  Gb  interrupts.o [1]
_BSP_IntHandler_202     0xfff07313     0x2  Code  Gb  interrupts.o [1]
_BSP_IntHandler_203     0xfff07311     0x2  Code  Gb  interrupts.o [1]
_BSP_IntHandler_204     0xfff0730f     0x2  Code  Gb  interrupts.o [1]
_BSP_IntHandler_205     0xfff0730d     0x2  Code  Gb  interrupts.o [1]
_BSP_IntHandler_206     0xfff0730b     0x2  Code  Gb  interrupts.o [1]
_BSP_IntHandler_207     0xfff07309     0x2  Code  Gb  interrupts.o [1]
_BSP_IntHandler_208     0xfff07307     0x2  Code  Gb  interrupts.o [1]
_BSP_IntHandler_209     0xfff07305     0x2  Code  Gb  interrupts.o [1]
_BSP_IntHandler_210     0xfff07303     0x2  Code  Gb  interrupts.o [1]
_BSP_IntHandler_211     0xfff07301     0x2  Code  Gb  interrupts.o [1]
_BSP_IntHandler_212     0xfff072ff     0x2  Code  Gb  interrupts.o [1]
_BSP_IntHandler_213     0xfff072fd     0x2  Code  Gb  interrupts.o [1]
_BSP_IntHandler_214     0xfff072fb     0x2  Code  Gb  interrupts.o [1]
_BSP_IntHandler_215     0xfff072f9     0x2  Code  Gb  interrupts.o [1]
_BSP_IntHandler_216     0xfff072f7     0x2  Code  Gb  interrupts.o [1]
_BSP_IntHandler_217     0xfff072f5     0x2  Code  Gb  interrupts.o [1]
_BSP_IntHandler_218     0xfff072f3     0x2  Code  Gb  interrupts.o [1]
_BSP_IntHandler_219     0xfff072f1     0x2  Code  Gb  interrupts.o [1]
_BSP_IntHandler_220     0xfff072ef     0x2  Code  Gb  interrupts.o [1]
_BSP_IntHandler_221     0xfff072ed     0x2  Code  Gb  interrupts.o [1]
_BSP_IntHandler_222     0xfff072eb     0x2  Code  Gb  interrupts.o [1]
_BSP_IntHandler_223     0xfff072e9     0x2  Code  Gb  interrupts.o [1]
_BSP_IntHandler_224     0xfff072e7     0x2  Code  Gb  interrupts.o [1]
_BSP_IntHandler_225     0xfff072e5     0x2  Code  Gb  interrupts.o [1]
_BSP_IntHandler_226     0xfff072e3     0x2  Code  Gb  interrupts.o [1]
_BSP_IntHandler_227     0xfff072e1     0x2  Code  Gb  interrupts.o [1]
_BSP_IntHandler_228     0xfff072df     0x2  Code  Gb  interrupts.o [1]
_BSP_IntHandler_229     0xfff072dd     0x2  Code  Gb  interrupts.o [1]
_BSP_IntHandler_230     0xfff072db     0x2  Code  Gb  interrupts.o [1]
_BSP_IntHandler_231     0xfff072d9     0x2  Code  Gb  interrupts.o [1]
_BSP_IntHandler_232     0xfff072d7     0x2  Code  Gb  interrupts.o [1]
_BSP_IntHandler_233     0xfff072d5     0x2  Code  Gb  interrupts.o [1]
_BSP_IntHandler_234     0xfff072d3     0x2  Code  Gb  interrupts.o [1]
_BSP_IntHandler_235     0xfff072d1     0x2  Code  Gb  interrupts.o [1]
_BSP_IntHandler_236     0xfff072cf     0x2  Code  Gb  interrupts.o [1]
_BSP_IntHandler_237     0xfff072cd     0x2  Code  Gb  interrupts.o [1]
_BSP_IntHandler_238     0xfff072cb     0x2  Code  Gb  interrupts.o [1]
_BSP_IntHandler_239     0xfff072c9     0x2  Code  Gb  interrupts.o [1]
_BSP_IntHandler_240     0xfff072c7     0x2  Code  Gb  interrupts.o [1]
_BSP_IntHandler_241     0xfff072c5     0x2  Code  Gb  interrupts.o [1]
_BSP_IntHandler_242     0xfff072c3     0x2  Code  Gb  interrupts.o [1]
_BSP_IntHandler_243     0xfff072c1     0x2  Code  Gb  interrupts.o [1]
_BSP_IntHandler_244     0xfff072bf     0x2  Code  Gb  interrupts.o [1]
_BSP_IntHandler_245     0xfff072bd     0x2  Code  Gb  interrupts.o [1]
_BSP_IntHandler_246     0xfff072bb     0x2  Code  Gb  interrupts.o [1]
_BSP_IntHandler_247     0xfff072b9     0x2  Code  Gb  interrupts.o [1]
_BSP_IntHandler_248     0xfff072b7     0x2  Code  Gb  interrupts.o [1]
_BSP_IntHandler_249     0xfff072b5     0x2  Code  Gb  interrupts.o [1]
_BSP_IntHandler_250     0xfff072b3     0x2  Code  Gb  interrupts.o [1]
_BSP_IntHandler_251     0xfff072b1     0x2  Code  Gb  interrupts.o [1]
_BSP_IntHandler_252     0xfff072af     0x2  Code  Gb  interrupts.o [1]
_BSP_IntHandler_253     0xfff072ad     0x2  Code  Gb  interrupts.o [1]
_BSP_IntHandler_254     0xfff072ab     0x2  Code  Gb  interrupts.o [1]
_BSP_IntHandler_255     0xfff072a9     0x2  Code  Gb  interrupts.o [1]
_BSP_IntVectSet         0xfff074a3     0xc  Code  Gb  interrupts.o [1]
_BSP_IntVectTbl         0xfff00800   0x400  Data  Gb  interrupts.o [1]
_BSP_LED_Init           0xfff078ac    0x5a  Code  Gb  bsp_led.o [1]
_BSP_LED_Off            0xfff077d2    0xda  Code  Gb  bsp_led.o [1]
_BSP_LED_Toggle         0xfff0757c   0x256  Code  Gb  bsp_led.o [1]
_BSP_MicInit            0xfff07a4c    0x48  Code  Lc  bsp_misc.o [1]
_BSP_MiscInit           0xfff07a94     0xa  Code  Gb  bsp_misc.o [1]
_BSP_OS_GLCD_MutexCreate
                        0xfff07ac8    0x1e  Code  Gb  bsp_os.o [1]
_BSP_OS_GLCD_MutexPend  0xfff07aaf    0x19  Code  Gb  bsp_os.o [1]
_BSP_OS_GLCD_MutexPost  0xfff07a9e    0x11  Code  Gb  bsp_os.o [1]
_BSP_PotInit            0xfff079e4    0x68  Code  Lc  bsp_misc.o [1]
_BSP_SwsInit            0xfff079ce    0x16  Code  Lc  bsp_misc.o [1]
_BSP_SysInit            0xfff056a5    0x63  Code  Gb  bsp_sys.o [1]
_BSP_SysPerClkFreqGet   0xfff05617    0x8e  Code  Gb  bsp_sys.o [1]
_CPU_CntLeadZeros       0xfff02fa0    0x10  Code  Gb  cpu_core.o [1]
_CPU_CntLeadZeros32     0xfff02f39    0x67  Code  Gb  cpu_core.o [1]
_CPU_CntLeadZerosTbl    0xfff00c00   0x100  Data  Lc  cpu_core.o [1]
_CPU_Init               0xfff03164     0xa  Code  Gb  cpu_core.o [1]
_CPU_IntDisMeasCtr      0x00007c9a     0x2  Data  Gb  cpu_core.o [1]
_CPU_IntDisMeasInit     0xfff02e6d    0xa2  Code  Lc  cpu_core.o [1]
_CPU_IntDisMeasMaxCalc  0xfff02e4c    0x21  Code  Lc  cpu_core.o [1]
_CPU_IntDisMeasMaxCurGet
                        0xfff03052    0x39  Code  Gb  cpu_core.o [1]
_CPU_IntDisMeasMaxCurReset
                        0xfff0308b    0x38  Code  Gb  cpu_core.o [1]
_CPU_IntDisMeasMaxCur_cnts
                        0x00007ca4     0x2  Data  Gb  cpu_core.o [1]
_CPU_IntDisMeasMax_cnts
                        0x00007ca6     0x2  Data  Gb  cpu_core.o [1]
_CPU_IntDisMeasOvrhd_cnts
                        0x00007ca2     0x2  Data  Gb  cpu_core.o [1]
_CPU_IntDisMeasStart    0xfff0301b    0x37  Code  Gb  cpu_core.o [1]
_CPU_IntDisMeasStart_cnts
                        0x00007c9e     0x2  Data  Gb  cpu_core.o [1]
_CPU_IntDisMeasStop     0xfff02fb0    0x6b  Code  Gb  cpu_core.o [1]
_CPU_IntDisMeasStop_cnts
                        0x00007ca0     0x2  Data  Gb  cpu_core.o [1]
_CPU_IntDisNestCtr      0x00007c9c     0x2  Data  Gb  cpu_core.o [1]
_CPU_Name               0x00007bd8    0x10  Data  Gb  cpu_core.o [1]
_CPU_NameClr            0xfff03129    0x39  Code  Gb  cpu_core.o [1]
_CPU_NameInit           0xfff02f35     0x4  Code  Lc  cpu_core.o [1]
_CPU_SW_Exception       0xfff03162     0x2  Code  Gb  cpu_core.o [1]
_CPU_TS_32_Accum        0x00007c1c     0x4  Data  Gb  cpu_core.o [1]
_CPU_TS_32_TmrPrev      0x00007c98     0x2  Data  Gb  cpu_core.o [1]
_CPU_TS_Get32           0xfff030cf    0x5a  Code  Gb  cpu_core.o [1]
_CPU_TS_Init            0xfff02f0f    0x26  Code  Lc  cpu_core.o [1]
_CPU_TS_TmrFreqSet      0xfff030c3     0x8  Code  Gb  cpu_core.o [1]
_CPU_TS_TmrFreq_Hz      0x00007c20     0x4  Data  Gb  cpu_core.o [1]
_CPU_TS_TmrInit         0xfff03178    0x78  Code  Gb  cpu_bsp.o [1]
_CPU_TS_TmrRd           0xfff0316e     0xa  Code  Gb  cpu_bsp.o [1]
_CPU_TS_Update          0xfff030cb     0x4  Code  Gb  cpu_core.o [1]
_Comm_API               0x00007be8     0xc  Data  Gb  Glyph.o [1]
_Font8x8_char_0         0xfff00f6a     0xa  Data  Gb  font_8x8.o [1]
_Font8x8_char_1         0xfff00fde     0xa  Data  Gb  font_8x8.o [1]
_Font8x8_char_10        0xfff01038     0xa  Data  Gb  font_8x8.o [1]
_Font8x8_char_100       0xfff013bc     0xa  Data  Gb  font_8x8.o [1]
_Font8x8_char_101       0xfff013c6     0xa  Data  Gb  font_8x8.o [1]
_Font8x8_char_102       0xfff013d0     0xa  Data  Gb  font_8x8.o [1]
_Font8x8_char_103       0xfff013da     0xa  Data  Gb  font_8x8.o [1]
_Font8x8_char_104       0xfff013e4     0xa  Data  Gb  font_8x8.o [1]
_Font8x8_char_105       0xfff013ee     0xa  Data  Gb  font_8x8.o [1]
_Font8x8_char_106       0xfff013f8     0xa  Data  Gb  font_8x8.o [1]
_Font8x8_char_107       0xfff01402     0xa  Data  Gb  font_8x8.o [1]
_Font8x8_char_108       0xfff0140c     0xa  Data  Gb  font_8x8.o [1]
_Font8x8_char_109       0xfff01416     0xa  Data  Gb  font_8x8.o [1]
_Font8x8_char_11        0xfff01042     0xa  Data  Gb  font_8x8.o [1]
_Font8x8_char_110       0xfff01420     0xa  Data  Gb  font_8x8.o [1]
_Font8x8_char_111       0xfff0142a     0xa  Data  Gb  font_8x8.o [1]
_Font8x8_char_112       0xfff01434     0xa  Data  Gb  font_8x8.o [1]
_Font8x8_char_113       0xfff0143e     0xa  Data  Gb  font_8x8.o [1]
_Font8x8_char_114       0xfff01448     0xa  Data  Gb  font_8x8.o [1]
_Font8x8_char_115       0xfff01452     0xa  Data  Gb  font_8x8.o [1]
_Font8x8_char_116       0xfff0145c     0xa  Data  Gb  font_8x8.o [1]
_Font8x8_char_117       0xfff01466     0xa  Data  Gb  font_8x8.o [1]
_Font8x8_char_118       0xfff01470     0xa  Data  Gb  font_8x8.o [1]
_Font8x8_char_119       0xfff0147a     0xa  Data  Gb  font_8x8.o [1]
_Font8x8_char_12        0xfff0104c     0xa  Data  Gb  font_8x8.o [1]
_Font8x8_char_120       0xfff01484     0xa  Data  Gb  font_8x8.o [1]
_Font8x8_char_121       0xfff0148e     0xa  Data  Gb  font_8x8.o [1]
_Font8x8_char_122       0xfff01498     0xa  Data  Gb  font_8x8.o [1]
_Font8x8_char_123       0xfff014a2     0xa  Data  Gb  font_8x8.o [1]
_Font8x8_char_124       0xfff014ac     0xa  Data  Gb  font_8x8.o [1]
_Font8x8_char_125       0xfff014b6     0xa  Data  Gb  font_8x8.o [1]
_Font8x8_char_126       0xfff014c0     0xa  Data  Gb  font_8x8.o [1]
_Font8x8_char_127       0xfff014ca     0xa  Data  Gb  font_8x8.o [1]
_Font8x8_char_128       0xfff014d4     0xa  Data  Gb  font_8x8.o [1]
_Font8x8_char_129       0xfff014de     0xa  Data  Gb  font_8x8.o [1]
_Font8x8_char_13        0xfff01056     0xa  Data  Gb  font_8x8.o [1]
_Font8x8_char_130       0xfff014e8     0xa  Data  Gb  font_8x8.o [1]
_Font8x8_char_131       0xfff014f2     0xa  Data  Gb  font_8x8.o [1]
_Font8x8_char_132       0xfff014fc     0xa  Data  Gb  font_8x8.o [1]
_Font8x8_char_133       0xfff01506     0xa  Data  Gb  font_8x8.o [1]
_Font8x8_char_134       0xfff01510     0xa  Data  Gb  font_8x8.o [1]
_Font8x8_char_135       0xfff0151a     0xa  Data  Gb  font_8x8.o [1]
_Font8x8_char_136       0xfff01524     0xa  Data  Gb  font_8x8.o [1]
_Font8x8_char_137       0xfff0152e     0xa  Data  Gb  font_8x8.o [1]
_Font8x8_char_138       0xfff01538     0xa  Data  Gb  font_8x8.o [1]
_Font8x8_char_139       0xfff01542     0xa  Data  Gb  font_8x8.o [1]
_Font8x8_char_14        0xfff01060     0xa  Data  Gb  font_8x8.o [1]
_Font8x8_char_140       0xfff0154c     0xa  Data  Gb  font_8x8.o [1]
_Font8x8_char_141       0xfff01556     0xa  Data  Gb  font_8x8.o [1]
_Font8x8_char_142       0xfff01560     0xa  Data  Gb  font_8x8.o [1]
_Font8x8_char_143       0xfff0156a     0xa  Data  Gb  font_8x8.o [1]
_Font8x8_char_144       0xfff01574     0xa  Data  Gb  font_8x8.o [1]
_Font8x8_char_145       0xfff0157e     0xa  Data  Gb  font_8x8.o [1]
_Font8x8_char_146       0xfff01588     0xa  Data  Gb  font_8x8.o [1]
_Font8x8_char_147       0xfff01592     0xa  Data  Gb  font_8x8.o [1]
_Font8x8_char_148       0xfff0159c     0xa  Data  Gb  font_8x8.o [1]
_Font8x8_char_149       0xfff015a6     0xa  Data  Gb  font_8x8.o [1]
_Font8x8_char_15        0xfff0106a     0xa  Data  Gb  font_8x8.o [1]
_Font8x8_char_150       0xfff015b0     0xa  Data  Gb  font_8x8.o [1]
_Font8x8_char_151       0xfff015ba     0xa  Data  Gb  font_8x8.o [1]
_Font8x8_char_152       0xfff015c4     0xa  Data  Gb  font_8x8.o [1]
_Font8x8_char_153       0xfff015ce     0xa  Data  Gb  font_8x8.o [1]
_Font8x8_char_154       0xfff015d8     0xa  Data  Gb  font_8x8.o [1]
_Font8x8_char_155       0xfff015e2     0xa  Data  Gb  font_8x8.o [1]
_Font8x8_char_156       0xfff015ec     0xa  Data  Gb  font_8x8.o [1]
_Font8x8_char_157       0xfff015f6     0xa  Data  Gb  font_8x8.o [1]
_Font8x8_char_158       0xfff01600     0xa  Data  Gb  font_8x8.o [1]
_Font8x8_char_159       0xfff0160a     0xa  Data  Gb  font_8x8.o [1]
_Font8x8_char_16        0xfff01074     0xa  Data  Gb  font_8x8.o [1]
_Font8x8_char_160       0xfff01614     0xa  Data  Gb  font_8x8.o [1]
_Font8x8_char_161       0xfff0161e     0xa  Data  Gb  font_8x8.o [1]
_Font8x8_char_162       0xfff01628     0xa  Data  Gb  font_8x8.o [1]
_Font8x8_char_163       0xfff01632     0xa  Data  Gb  font_8x8.o [1]
_Font8x8_char_164       0xfff0163c     0xa  Data  Gb  font_8x8.o [1]
_Font8x8_char_165       0xfff01646     0xa  Data  Gb  font_8x8.o [1]
_Font8x8_char_166       0xfff01650     0xa  Data  Gb  font_8x8.o [1]
_Font8x8_char_167       0xfff0165a     0xa  Data  Gb  font_8x8.o [1]
_Font8x8_char_168       0xfff01664     0xa  Data  Gb  font_8x8.o [1]
_Font8x8_char_169       0xfff0166e     0xa  Data  Gb  font_8x8.o [1]
_Font8x8_char_17        0xfff0107e     0xa  Data  Gb  font_8x8.o [1]
_Font8x8_char_170       0xfff01678     0xa  Data  Gb  font_8x8.o [1]
_Font8x8_char_171       0xfff01682     0xa  Data  Gb  font_8x8.o [1]
_Font8x8_char_172       0xfff0168c     0xa  Data  Gb  font_8x8.o [1]
_Font8x8_char_173       0xfff01696     0xa  Data  Gb  font_8x8.o [1]
_Font8x8_char_174       0xfff016a0     0xa  Data  Gb  font_8x8.o [1]
_Font8x8_char_175       0xfff016aa     0xa  Data  Gb  font_8x8.o [1]
_Font8x8_char_176       0xfff016b4     0xa  Data  Gb  font_8x8.o [1]
_Font8x8_char_177       0xfff016be     0xa  Data  Gb  font_8x8.o [1]
_Font8x8_char_178       0xfff016c8     0xa  Data  Gb  font_8x8.o [1]
_Font8x8_char_179       0xfff016d2     0xa  Data  Gb  font_8x8.o [1]
_Font8x8_char_18        0xfff01088     0xa  Data  Gb  font_8x8.o [1]
_Font8x8_char_180       0xfff016dc     0xa  Data  Gb  font_8x8.o [1]
_Font8x8_char_181       0xfff016e6     0xa  Data  Gb  font_8x8.o [1]
_Font8x8_char_182       0xfff016f0     0xa  Data  Gb  font_8x8.o [1]
_Font8x8_char_183       0xfff016fa     0xa  Data  Gb  font_8x8.o [1]
_Font8x8_char_184       0xfff01704     0xa  Data  Gb  font_8x8.o [1]
_Font8x8_char_185       0xfff0170e     0xa  Data  Gb  font_8x8.o [1]
_Font8x8_char_186       0xfff01718     0xa  Data  Gb  font_8x8.o [1]
_Font8x8_char_187       0xfff01722     0xa  Data  Gb  font_8x8.o [1]
_Font8x8_char_188       0xfff0172c     0xa  Data  Gb  font_8x8.o [1]
_Font8x8_char_189       0xfff01736     0xa  Data  Gb  font_8x8.o [1]
_Font8x8_char_19        0xfff01092     0xa  Data  Gb  font_8x8.o [1]
_Font8x8_char_190       0xfff01740     0xa  Data  Gb  font_8x8.o [1]
_Font8x8_char_191       0xfff0174a     0xa  Data  Gb  font_8x8.o [1]
_Font8x8_char_192       0xfff01754     0xa  Data  Gb  font_8x8.o [1]
_Font8x8_char_193       0xfff0175e     0xa  Data  Gb  font_8x8.o [1]
_Font8x8_char_194       0xfff01768     0xa  Data  Gb  font_8x8.o [1]
_Font8x8_char_195       0xfff01772     0xa  Data  Gb  font_8x8.o [1]
_Font8x8_char_196       0xfff0177c     0xa  Data  Gb  font_8x8.o [1]
_Font8x8_char_197       0xfff01786     0xa  Data  Gb  font_8x8.o [1]
_Font8x8_char_198       0xfff01790     0xa  Data  Gb  font_8x8.o [1]
_Font8x8_char_199       0xfff0179a     0xa  Data  Gb  font_8x8.o [1]
_Font8x8_char_2         0xfff00fe8     0xa  Data  Gb  font_8x8.o [1]
_Font8x8_char_20        0xfff0109c     0xa  Data  Gb  font_8x8.o [1]
_Font8x8_char_200       0xfff017a4     0xa  Data  Gb  font_8x8.o [1]
_Font8x8_char_201       0xfff017ae     0xa  Data  Gb  font_8x8.o [1]
_Font8x8_char_202       0xfff017b8     0xa  Data  Gb  font_8x8.o [1]
_Font8x8_char_203       0xfff017c2     0xa  Data  Gb  font_8x8.o [1]
_Font8x8_char_204       0xfff017cc     0xa  Data  Gb  font_8x8.o [1]
_Font8x8_char_205       0xfff017d6     0xa  Data  Gb  font_8x8.o [1]
_Font8x8_char_206       0xfff017e0     0xa  Data  Gb  font_8x8.o [1]
_Font8x8_char_207       0xfff017ea     0xa  Data  Gb  font_8x8.o [1]
_Font8x8_char_208       0xfff017f4     0xa  Data  Gb  font_8x8.o [1]
_Font8x8_char_209       0xfff017fe     0xa  Data  Gb  font_8x8.o [1]
_Font8x8_char_21        0xfff010a6     0xa  Data  Gb  font_8x8.o [1]
_Font8x8_char_210       0xfff01808     0xa  Data  Gb  font_8x8.o [1]
_Font8x8_char_211       0xfff01812     0xa  Data  Gb  font_8x8.o [1]
_Font8x8_char_212       0xfff0181c     0xa  Data  Gb  font_8x8.o [1]
_Font8x8_char_213       0xfff01826     0xa  Data  Gb  font_8x8.o [1]
_Font8x8_char_214       0xfff01830     0xa  Data  Gb  font_8x8.o [1]
_Font8x8_char_215       0xfff0183a     0xa  Data  Gb  font_8x8.o [1]
_Font8x8_char_216       0xfff01844     0xa  Data  Gb  font_8x8.o [1]
_Font8x8_char_217       0xfff0184e     0xa  Data  Gb  font_8x8.o [1]
_Font8x8_char_218       0xfff01858     0xa  Data  Gb  font_8x8.o [1]
_Font8x8_char_219       0xfff01862     0xa  Data  Gb  font_8x8.o [1]
_Font8x8_char_22        0xfff010b0     0xa  Data  Gb  font_8x8.o [1]
_Font8x8_char_220       0xfff0186c     0xa  Data  Gb  font_8x8.o [1]
_Font8x8_char_221       0xfff01876     0xa  Data  Gb  font_8x8.o [1]
_Font8x8_char_222       0xfff01880     0xa  Data  Gb  font_8x8.o [1]
_Font8x8_char_223       0xfff0188a     0xa  Data  Gb  font_8x8.o [1]
_Font8x8_char_224       0xfff01894     0xa  Data  Gb  font_8x8.o [1]
_Font8x8_char_225       0xfff0189e     0xa  Data  Gb  font_8x8.o [1]
_Font8x8_char_226       0xfff018a8     0xa  Data  Gb  font_8x8.o [1]
_Font8x8_char_227       0xfff018b2     0xa  Data  Gb  font_8x8.o [1]
_Font8x8_char_228       0xfff018bc     0xa  Data  Gb  font_8x8.o [1]
_Font8x8_char_229       0xfff018c6     0xa  Data  Gb  font_8x8.o [1]
_Font8x8_char_23        0xfff010ba     0xa  Data  Gb  font_8x8.o [1]
_Font8x8_char_230       0xfff018d0     0xa  Data  Gb  font_8x8.o [1]
_Font8x8_char_231       0xfff018da     0xa  Data  Gb  font_8x8.o [1]
_Font8x8_char_232       0xfff018e4     0xa  Data  Gb  font_8x8.o [1]
_Font8x8_char_233       0xfff018ee     0xa  Data  Gb  font_8x8.o [1]
_Font8x8_char_234       0xfff018f8     0xa  Data  Gb  font_8x8.o [1]
_Font8x8_char_235       0xfff01902     0xa  Data  Gb  font_8x8.o [1]
_Font8x8_char_236       0xfff0190c     0xa  Data  Gb  font_8x8.o [1]
_Font8x8_char_237       0xfff01916     0xa  Data  Gb  font_8x8.o [1]
_Font8x8_char_238       0xfff01920     0xa  Data  Gb  font_8x8.o [1]
_Font8x8_char_239       0xfff0192a     0xa  Data  Gb  font_8x8.o [1]
_Font8x8_char_24        0xfff010c4     0xa  Data  Gb  font_8x8.o [1]
_Font8x8_char_240       0xfff01934     0xa  Data  Gb  font_8x8.o [1]
_Font8x8_char_241       0xfff0193e     0xa  Data  Gb  font_8x8.o [1]
_Font8x8_char_242       0xfff01948     0xa  Data  Gb  font_8x8.o [1]
_Font8x8_char_243       0xfff01952     0xa  Data  Gb  font_8x8.o [1]
_Font8x8_char_244       0xfff0195c     0xa  Data  Gb  font_8x8.o [1]
_Font8x8_char_245       0xfff01966     0xa  Data  Gb  font_8x8.o [1]
_Font8x8_char_246       0xfff01970     0xa  Data  Gb  font_8x8.o [1]
_Font8x8_char_247       0xfff0197a     0xa  Data  Gb  font_8x8.o [1]
_Font8x8_char_248       0xfff01984     0xa  Data  Gb  font_8x8.o [1]
_Font8x8_char_249       0xfff0198e     0xa  Data  Gb  font_8x8.o [1]
_Font8x8_char_25        0xfff010ce     0xa  Data  Gb  font_8x8.o [1]
_Font8x8_char_250       0xfff01998     0xa  Data  Gb  font_8x8.o [1]
_Font8x8_char_251       0xfff019a2     0xa  Data  Gb  font_8x8.o [1]
_Font8x8_char_252       0xfff019ac     0xa  Data  Gb  font_8x8.o [1]
_Font8x8_char_253       0xfff019b6     0xa  Data  Gb  font_8x8.o [1]
_Font8x8_char_254       0xfff019c0     0xa  Data  Gb  font_8x8.o [1]
_Font8x8_char_255       0xfff019ca     0xa  Data  Gb  font_8x8.o [1]
_Font8x8_char_26        0xfff010d8     0xa  Data  Gb  font_8x8.o [1]
_Font8x8_char_27        0xfff010e2     0xa  Data  Gb  font_8x8.o [1]
_Font8x8_char_28        0xfff010ec     0xa  Data  Gb  font_8x8.o [1]
_Font8x8_char_29        0xfff010f6     0xa  Data  Gb  font_8x8.o [1]
_Font8x8_char_3         0xfff00ff2     0xa  Data  Gb  font_8x8.o [1]
_Font8x8_char_30        0xfff01100     0xa  Data  Gb  font_8x8.o [1]
_Font8x8_char_31        0xfff0110a     0xa  Data  Gb  font_8x8.o [1]
_Font8x8_char_32        0xfff01114     0xa  Data  Gb  font_8x8.o [1]
_Font8x8_char_33        0xfff0111e     0xa  Data  Gb  font_8x8.o [1]
_Font8x8_char_34        0xfff01128     0xa  Data  Gb  font_8x8.o [1]
_Font8x8_char_35        0xfff01132     0xa  Data  Gb  font_8x8.o [1]
_Font8x8_char_36        0xfff0113c     0xa  Data  Gb  font_8x8.o [1]
_Font8x8_char_37        0xfff01146     0xa  Data  Gb  font_8x8.o [1]
_Font8x8_char_38        0xfff01150     0xa  Data  Gb  font_8x8.o [1]
_Font8x8_char_39        0xfff0115a     0xa  Data  Gb  font_8x8.o [1]
_Font8x8_char_4         0xfff00ffc     0xa  Data  Gb  font_8x8.o [1]
_Font8x8_char_40        0xfff01164     0xa  Data  Gb  font_8x8.o [1]
_Font8x8_char_41        0xfff0116e     0xa  Data  Gb  font_8x8.o [1]
_Font8x8_char_42        0xfff01178     0xa  Data  Gb  font_8x8.o [1]
_Font8x8_char_43        0xfff01182     0xa  Data  Gb  font_8x8.o [1]
_Font8x8_char_44        0xfff0118c     0xa  Data  Gb  font_8x8.o [1]
_Font8x8_char_45        0xfff01196     0xa  Data  Gb  font_8x8.o [1]
_Font8x8_char_46        0xfff011a0     0xa  Data  Gb  font_8x8.o [1]
_Font8x8_char_47        0xfff011aa     0xa  Data  Gb  font_8x8.o [1]
_Font8x8_char_48        0xfff011b4     0xa  Data  Gb  font_8x8.o [1]
_Font8x8_char_49        0xfff011be     0xa  Data  Gb  font_8x8.o [1]
_Font8x8_char_5         0xfff01006     0xa  Data  Gb  font_8x8.o [1]
_Font8x8_char_50        0xfff011c8     0xa  Data  Gb  font_8x8.o [1]
_Font8x8_char_51        0xfff011d2     0xa  Data  Gb  font_8x8.o [1]
_Font8x8_char_52        0xfff011dc     0xa  Data  Gb  font_8x8.o [1]
_Font8x8_char_53        0xfff011e6     0xa  Data  Gb  font_8x8.o [1]
_Font8x8_char_54        0xfff011f0     0xa  Data  Gb  font_8x8.o [1]
_Font8x8_char_55        0xfff011fa     0xa  Data  Gb  font_8x8.o [1]
_Font8x8_char_56        0xfff01204     0xa  Data  Gb  font_8x8.o [1]
_Font8x8_char_57        0xfff0120e     0xa  Data  Gb  font_8x8.o [1]
_Font8x8_char_58        0xfff01218     0xa  Data  Gb  font_8x8.o [1]
_Font8x8_char_59        0xfff01222     0xa  Data  Gb  font_8x8.o [1]
_Font8x8_char_6         0xfff01010     0xa  Data  Gb  font_8x8.o [1]
_Font8x8_char_60        0xfff0122c     0xa  Data  Gb  font_8x8.o [1]
_Font8x8_char_61        0xfff01236     0xa  Data  Gb  font_8x8.o [1]
_Font8x8_char_62        0xfff01240     0xa  Data  Gb  font_8x8.o [1]
_Font8x8_char_63        0xfff0124a     0xa  Data  Gb  font_8x8.o [1]
_Font8x8_char_64        0xfff01254     0xa  Data  Gb  font_8x8.o [1]
_Font8x8_char_65        0xfff0125e     0xa  Data  Gb  font_8x8.o [1]
_Font8x8_char_66        0xfff01268     0xa  Data  Gb  font_8x8.o [1]
_Font8x8_char_67        0xfff01272     0xa  Data  Gb  font_8x8.o [1]
_Font8x8_char_68        0xfff0127c     0xa  Data  Gb  font_8x8.o [1]
_Font8x8_char_69        0xfff01286     0xa  Data  Gb  font_8x8.o [1]
_Font8x8_char_7         0xfff0101a     0xa  Data  Gb  font_8x8.o [1]
_Font8x8_char_70        0xfff01290     0xa  Data  Gb  font_8x8.o [1]
_Font8x8_char_71        0xfff0129a     0xa  Data  Gb  font_8x8.o [1]
_Font8x8_char_72        0xfff012a4     0xa  Data  Gb  font_8x8.o [1]
_Font8x8_char_73        0xfff012ae     0xa  Data  Gb  font_8x8.o [1]
_Font8x8_char_74        0xfff012b8     0xa  Data  Gb  font_8x8.o [1]
_Font8x8_char_75        0xfff012c2     0xa  Data  Gb  font_8x8.o [1]
_Font8x8_char_76        0xfff012cc     0xa  Data  Gb  font_8x8.o [1]
_Font8x8_char_77        0xfff012d6     0xa  Data  Gb  font_8x8.o [1]
_Font8x8_char_78        0xfff012e0     0xa  Data  Gb  font_8x8.o [1]
_Font8x8_char_79        0xfff012ea     0xa  Data  Gb  font_8x8.o [1]
_Font8x8_char_8         0xfff01024     0xa  Data  Gb  font_8x8.o [1]
_Font8x8_char_80        0xfff012f4     0xa  Data  Gb  font_8x8.o [1]
_Font8x8_char_81        0xfff012fe     0xa  Data  Gb  font_8x8.o [1]
_Font8x8_char_82        0xfff01308     0xa  Data  Gb  font_8x8.o [1]
_Font8x8_char_83        0xfff01312     0xa  Data  Gb  font_8x8.o [1]
_Font8x8_char_84        0xfff0131c     0xa  Data  Gb  font_8x8.o [1]
_Font8x8_char_85        0xfff01326     0xa  Data  Gb  font_8x8.o [1]
_Font8x8_char_86        0xfff01330     0xa  Data  Gb  font_8x8.o [1]
_Font8x8_char_87        0xfff0133a     0xa  Data  Gb  font_8x8.o [1]
_Font8x8_char_88        0xfff01344     0xa  Data  Gb  font_8x8.o [1]
_Font8x8_char_89        0xfff0134e     0xa  Data  Gb  font_8x8.o [1]
_Font8x8_char_9         0xfff0102e     0xa  Data  Gb  font_8x8.o [1]
_Font8x8_char_90        0xfff01358     0xa  Data  Gb  font_8x8.o [1]
_Font8x8_char_91        0xfff01362     0xa  Data  Gb  font_8x8.o [1]
_Font8x8_char_92        0xfff0136c     0xa  Data  Gb  font_8x8.o [1]
_Font8x8_char_93        0xfff01376     0xa  Data  Gb  font_8x8.o [1]
_Font8x8_char_94        0xfff01380     0xa  Data  Gb  font_8x8.o [1]
_Font8x8_char_95        0xfff0138a     0xa  Data  Gb  font_8x8.o [1]
_Font8x8_char_96        0xfff01394     0xa  Data  Gb  font_8x8.o [1]
_Font8x8_char_97        0xfff0139e     0xa  Data  Gb  font_8x8.o [1]
_Font8x8_char_98        0xfff013a8     0xa  Data  Gb  font_8x8.o [1]
_Font8x8_char_99        0xfff013b2     0xa  Data  Gb  font_8x8.o [1]
_Font8x8_table          0xfff00000   0x400  Data  Gb  font_8x8.o [1]
_Fontx5x7_char_0        0xfff01a28     0x7  Data  Gb  font_x5x7.o [1]
_Fontx5x7_char_1        0xfff01a2f     0x7  Data  Gb  font_x5x7.o [1]
_Fontx5x7_char_10       0xfff01a6e     0x7  Data  Gb  font_x5x7.o [1]
_Fontx5x7_char_100      0xfff01ce4     0x7  Data  Gb  font_x5x7.o [1]
_Fontx5x7_char_101      0xfff01ceb     0x7  Data  Gb  font_x5x7.o [1]
_Fontx5x7_char_102      0xfff01cf2     0x7  Data  Gb  font_x5x7.o [1]
_Fontx5x7_char_103      0xfff01cf9     0x7  Data  Gb  font_x5x7.o [1]
_Fontx5x7_char_104      0xfff01d00     0x7  Data  Gb  font_x5x7.o [1]
_Fontx5x7_char_105      0xfff01d07     0x7  Data  Gb  font_x5x7.o [1]
_Fontx5x7_char_106      0xfff01d0e     0x7  Data  Gb  font_x5x7.o [1]
_Fontx5x7_char_107      0xfff01d15     0x7  Data  Gb  font_x5x7.o [1]
_Fontx5x7_char_108      0xfff01d1c     0x7  Data  Gb  font_x5x7.o [1]
_Fontx5x7_char_109      0xfff01d23     0x7  Data  Gb  font_x5x7.o [1]
_Fontx5x7_char_11       0xfff01a75     0x7  Data  Gb  font_x5x7.o [1]
_Fontx5x7_char_110      0xfff01d2a     0x7  Data  Gb  font_x5x7.o [1]
_Fontx5x7_char_111      0xfff01d31     0x7  Data  Gb  font_x5x7.o [1]
_Fontx5x7_char_112      0xfff01d38     0x7  Data  Gb  font_x5x7.o [1]
_Fontx5x7_char_113      0xfff01d3f     0x7  Data  Gb  font_x5x7.o [1]
_Fontx5x7_char_114      0xfff01d46     0x7  Data  Gb  font_x5x7.o [1]
_Fontx5x7_char_115      0xfff01d4d     0x7  Data  Gb  font_x5x7.o [1]
_Fontx5x7_char_116      0xfff01d54     0x7  Data  Gb  font_x5x7.o [1]
_Fontx5x7_char_117      0xfff01d5b     0x7  Data  Gb  font_x5x7.o [1]
_Fontx5x7_char_118      0xfff01d62     0x7  Data  Gb  font_x5x7.o [1]
_Fontx5x7_char_119      0xfff01d69     0x7  Data  Gb  font_x5x7.o [1]
_Fontx5x7_char_12       0xfff01a7c     0x7  Data  Gb  font_x5x7.o [1]
_Fontx5x7_char_120      0xfff01d70     0x7  Data  Gb  font_x5x7.o [1]
_Fontx5x7_char_121      0xfff01d77     0x7  Data  Gb  font_x5x7.o [1]
_Fontx5x7_char_122      0xfff01d7e     0x7  Data  Gb  font_x5x7.o [1]
_Fontx5x7_char_123      0xfff01d85     0x7  Data  Gb  font_x5x7.o [1]
_Fontx5x7_char_124      0xfff01d8c     0x7  Data  Gb  font_x5x7.o [1]
_Fontx5x7_char_125      0xfff01d93     0x7  Data  Gb  font_x5x7.o [1]
_Fontx5x7_char_126      0xfff01d9a     0x7  Data  Gb  font_x5x7.o [1]
_Fontx5x7_char_13       0xfff01a83     0x7  Data  Gb  font_x5x7.o [1]
_Fontx5x7_char_14       0xfff01a8a     0x7  Data  Gb  font_x5x7.o [1]
_Fontx5x7_char_15       0xfff01a91     0x7  Data  Gb  font_x5x7.o [1]
_Fontx5x7_char_16       0xfff01a98     0x7  Data  Gb  font_x5x7.o [1]
_Fontx5x7_char_17       0xfff01a9f     0x7  Data  Gb  font_x5x7.o [1]
_Fontx5x7_char_18       0xfff01aa6     0x7  Data  Gb  font_x5x7.o [1]
_Fontx5x7_char_19       0xfff01aad     0x7  Data  Gb  font_x5x7.o [1]
_Fontx5x7_char_2        0xfff01a36     0x7  Data  Gb  font_x5x7.o [1]
_Fontx5x7_char_20       0xfff01ab4     0x7  Data  Gb  font_x5x7.o [1]
_Fontx5x7_char_21       0xfff01abb     0x7  Data  Gb  font_x5x7.o [1]
_Fontx5x7_char_22       0xfff01ac2     0x7  Data  Gb  font_x5x7.o [1]
_Fontx5x7_char_23       0xfff01ac9     0x7  Data  Gb  font_x5x7.o [1]
_Fontx5x7_char_24       0xfff01ad0     0x7  Data  Gb  font_x5x7.o [1]
_Fontx5x7_char_25       0xfff01ad7     0x7  Data  Gb  font_x5x7.o [1]
_Fontx5x7_char_26       0xfff01ade     0x7  Data  Gb  font_x5x7.o [1]
_Fontx5x7_char_27       0xfff01ae5     0x7  Data  Gb  font_x5x7.o [1]
_Fontx5x7_char_28       0xfff01aec     0x7  Data  Gb  font_x5x7.o [1]
_Fontx5x7_char_29       0xfff01af3     0x7  Data  Gb  font_x5x7.o [1]
_Fontx5x7_char_3        0xfff01a3d     0x7  Data  Gb  font_x5x7.o [1]
_Fontx5x7_char_30       0xfff01afa     0x7  Data  Gb  font_x5x7.o [1]
_Fontx5x7_char_31       0xfff01b01     0x7  Data  Gb  font_x5x7.o [1]
_Fontx5x7_char_32       0xfff01b08     0x7  Data  Gb  font_x5x7.o [1]
_Fontx5x7_char_33       0xfff01b0f     0x7  Data  Gb  font_x5x7.o [1]
_Fontx5x7_char_34       0xfff01b16     0x7  Data  Gb  font_x5x7.o [1]
_Fontx5x7_char_35       0xfff01b1d     0x7  Data  Gb  font_x5x7.o [1]
_Fontx5x7_char_36       0xfff01b24     0x7  Data  Gb  font_x5x7.o [1]
_Fontx5x7_char_37       0xfff01b2b     0x7  Data  Gb  font_x5x7.o [1]
_Fontx5x7_char_38       0xfff01b32     0x7  Data  Gb  font_x5x7.o [1]
_Fontx5x7_char_39       0xfff01b39     0x7  Data  Gb  font_x5x7.o [1]
_Fontx5x7_char_4        0xfff01a44     0x7  Data  Gb  font_x5x7.o [1]
_Fontx5x7_char_40       0xfff01b40     0x7  Data  Gb  font_x5x7.o [1]
_Fontx5x7_char_41       0xfff01b47     0x7  Data  Gb  font_x5x7.o [1]
_Fontx5x7_char_42       0xfff01b4e     0x7  Data  Gb  font_x5x7.o [1]
_Fontx5x7_char_43       0xfff01b55     0x7  Data  Gb  font_x5x7.o [1]
_Fontx5x7_char_44       0xfff01b5c     0x7  Data  Gb  font_x5x7.o [1]
_Fontx5x7_char_45       0xfff01b63     0x7  Data  Gb  font_x5x7.o [1]
_Fontx5x7_char_46       0xfff01b6a     0x7  Data  Gb  font_x5x7.o [1]
_Fontx5x7_char_47       0xfff01b71     0x7  Data  Gb  font_x5x7.o [1]
_Fontx5x7_char_48       0xfff01b78     0x7  Data  Gb  font_x5x7.o [1]
_Fontx5x7_char_49       0xfff01b7f     0x7  Data  Gb  font_x5x7.o [1]
_Fontx5x7_char_5        0xfff01a4b     0x7  Data  Gb  font_x5x7.o [1]
_Fontx5x7_char_50       0xfff01b86     0x7  Data  Gb  font_x5x7.o [1]
_Fontx5x7_char_51       0xfff01b8d     0x7  Data  Gb  font_x5x7.o [1]
_Fontx5x7_char_52       0xfff01b94     0x7  Data  Gb  font_x5x7.o [1]
_Fontx5x7_char_53       0xfff01b9b     0x7  Data  Gb  font_x5x7.o [1]
_Fontx5x7_char_54       0xfff01ba2     0x7  Data  Gb  font_x5x7.o [1]
_Fontx5x7_char_55       0xfff01ba9     0x7  Data  Gb  font_x5x7.o [1]
_Fontx5x7_char_56       0xfff01bb0     0x7  Data  Gb  font_x5x7.o [1]
_Fontx5x7_char_57       0xfff01bb7     0x7  Data  Gb  font_x5x7.o [1]
_Fontx5x7_char_58       0xfff01bbe     0x7  Data  Gb  font_x5x7.o [1]
_Fontx5x7_char_59       0xfff01bc5     0x7  Data  Gb  font_x5x7.o [1]
_Fontx5x7_char_6        0xfff01a52     0x7  Data  Gb  font_x5x7.o [1]
_Fontx5x7_char_60       0xfff01bcc     0x7  Data  Gb  font_x5x7.o [1]
_Fontx5x7_char_61       0xfff01bd3     0x7  Data  Gb  font_x5x7.o [1]
_Fontx5x7_char_62       0xfff01bda     0x7  Data  Gb  font_x5x7.o [1]
_Fontx5x7_char_63       0xfff01be1     0x7  Data  Gb  font_x5x7.o [1]
_Fontx5x7_char_64       0xfff01be8     0x7  Data  Gb  font_x5x7.o [1]
_Fontx5x7_char_65       0xfff01bef     0x7  Data  Gb  font_x5x7.o [1]
_Fontx5x7_char_66       0xfff01bf6     0x7  Data  Gb  font_x5x7.o [1]
_Fontx5x7_char_67       0xfff01bfd     0x7  Data  Gb  font_x5x7.o [1]
_Fontx5x7_char_68       0xfff01c04     0x7  Data  Gb  font_x5x7.o [1]
_Fontx5x7_char_69       0xfff01c0b     0x7  Data  Gb  font_x5x7.o [1]
_Fontx5x7_char_7        0xfff01a59     0x7  Data  Gb  font_x5x7.o [1]
_Fontx5x7_char_70       0xfff01c12     0x7  Data  Gb  font_x5x7.o [1]
_Fontx5x7_char_71       0xfff01c19     0x7  Data  Gb  font_x5x7.o [1]
_Fontx5x7_char_72       0xfff01c20     0x7  Data  Gb  font_x5x7.o [1]
_Fontx5x7_char_73       0xfff01c27     0x7  Data  Gb  font_x5x7.o [1]
_Fontx5x7_char_74       0xfff01c2e     0x7  Data  Gb  font_x5x7.o [1]
_Fontx5x7_char_75       0xfff01c35     0x7  Data  Gb  font_x5x7.o [1]
_Fontx5x7_char_76       0xfff01c3c     0x7  Data  Gb  font_x5x7.o [1]
_Fontx5x7_char_77       0xfff01c43     0x7  Data  Gb  font_x5x7.o [1]
_Fontx5x7_char_78       0xfff01c4a     0x7  Data  Gb  font_x5x7.o [1]
_Fontx5x7_char_79       0xfff01c51     0x7  Data  Gb  font_x5x7.o [1]
_Fontx5x7_char_8        0xfff01a60     0x7  Data  Gb  font_x5x7.o [1]
_Fontx5x7_char_80       0xfff01c58     0x7  Data  Gb  font_x5x7.o [1]
_Fontx5x7_char_81       0xfff01c5f     0x7  Data  Gb  font_x5x7.o [1]
_Fontx5x7_char_82       0xfff01c66     0x7  Data  Gb  font_x5x7.o [1]
_Fontx5x7_char_83       0xfff01c6d     0x7  Data  Gb  font_x5x7.o [1]
_Fontx5x7_char_84       0xfff01c74     0x7  Data  Gb  font_x5x7.o [1]
_Fontx5x7_char_85       0xfff01c7b     0x7  Data  Gb  font_x5x7.o [1]
_Fontx5x7_char_86       0xfff01c82     0x7  Data  Gb  font_x5x7.o [1]
_Fontx5x7_char_87       0xfff01c89     0x7  Data  Gb  font_x5x7.o [1]
_Fontx5x7_char_88       0xfff01c90     0x7  Data  Gb  font_x5x7.o [1]
_Fontx5x7_char_89       0xfff01c97     0x7  Data  Gb  font_x5x7.o [1]
_Fontx5x7_char_9        0xfff01a67     0x7  Data  Gb  font_x5x7.o [1]
_Fontx5x7_char_90       0xfff01c9e     0x7  Data  Gb  font_x5x7.o [1]
_Fontx5x7_char_91       0xfff01ca5     0x7  Data  Gb  font_x5x7.o [1]
_Fontx5x7_char_92       0xfff01cac     0x7  Data  Gb  font_x5x7.o [1]
_Fontx5x7_char_93       0xfff01cb3     0x7  Data  Gb  font_x5x7.o [1]
_Fontx5x7_char_94       0xfff01cba     0x7  Data  Gb  font_x5x7.o [1]
_Fontx5x7_char_95       0xfff01cc1     0x7  Data  Gb  font_x5x7.o [1]
_Fontx5x7_char_96       0xfff01cc8     0x7  Data  Gb  font_x5x7.o [1]
_Fontx5x7_char_97       0xfff01ccf     0x7  Data  Gb  font_x5x7.o [1]
_Fontx5x7_char_98       0xfff01cd6     0x7  Data  Gb  font_x5x7.o [1]
_Fontx5x7_char_99       0xfff01cdd     0x7  Data  Gb  font_x5x7.o [1]
_Fontx5x7_table         0xfff00400   0x400  Data  Gb  font_x5x7.o [1]
_GLCD_Mutex             0x00007abc    0x30  Data  Lc  bsp_os.o [1]
_GlyphChar              0xfff07b29    0x17  Code  Gb  Glyph.o [1]
_GlyphClearScreen       0xfff07af6    0x10  Code  Gb  Glyph.o [1]
_GlyphCommOpen          0xfff07c46    0x3a  Code  Gb  GlyphRegister.o [1]
_GlyphLCDOpen           0xfff07c14    0x32  Code  Gb  GlyphRegister.o [1]
_GlyphNormalScreen      0xfff07ae6    0x10  Code  Gb  Glyph.o [1]
_GlyphOpen              0xfff07ba1    0x45  Code  Gb  Glyph.o [1]
_GlyphSetDrawMode       0xfff07b40    0x17  Code  Gb  Glyph.o [1]
_GlyphSetFont           0xfff07b57    0x17  Code  Gb  Glyph.o [1]
_GlyphSetXY             0xfff07b6e    0x33  Code  Gb  Glyph.o [1]
_GlyphString            0xfff07b06    0x23  Code  Gb  Glyph.o [1]
_LCD_API                0x00007a34    0x58  Data  Gb  Glyph.o [1]
_Mem_Clr                0xfff055ca    0x12  Code  Gb  lib_mem.o [1]
_Mem_Heap               0x00000004  0x5000  Data  Gb  lib_mem.o [1]
_Mem_Init               0xfff055dc    0x3b  Code  Gb  lib_mem.o [1]
_Mem_SegCreate          0xfff05495    0xc3  Code  Gb  lib_mem.o [1]
_Mem_SegCreateCritical  0xfff05472    0x23  Code  Lc  lib_mem.o [1]
_Mem_SegHeadPtr         0x00007c24     0x4  Data  Gb  lib_mem.o [1]
_Mem_SegHeap            0x00007bc4    0x14  Data  Gb  lib_mem.o [1]
_Mem_SegOverlapChkCritical
                        0xfff05423    0x4f  Code  Lc  lib_mem.o [1]
_Mem_Set                0xfff05558    0x72  Code  Gb  lib_mem.o [1]
_OSCfg_DataSizeRAM      0xfff01e08     0x4  Data  Gb  os_cfg_app.o [1]
_OSCfg_ISRStk           0x00006a44   0x200  Data  Gb  os_cfg_app.o [1]
_OSCfg_ISRStkBasePtr    0xfff01dc8     0x4  Data  Gb  os_cfg_app.o [1]
_OSCfg_ISRStkSize       0xfff01dcc     0x4  Data  Gb  os_cfg_app.o [1]
_OSCfg_ISRStkSizeRAM    0xfff01dd0     0x4  Data  Gb  os_cfg_app.o [1]
_OSCfg_IdleTaskStk      0x00006844   0x200  Data  Gb  os_cfg_app.o [1]
_OSCfg_IdleTaskStkBasePtr
                        0xfff01db8     0x4  Data  Gb  os_cfg_app.o [1]
_OSCfg_IdleTaskStkLimit
                        0xfff01dbc     0x4  Data  Gb  os_cfg_app.o [1]
_OSCfg_IdleTaskStkSize  0xfff01dc0     0x4  Data  Gb  os_cfg_app.o [1]
_OSCfg_IdleTaskStkSizeRAM
                        0xfff01dc4     0x4  Data  Gb  os_cfg_app.o [1]
_OSCfg_Init             0xfff053aa    0x79  Code  Gb  os_cfg_app.o [1]
_OSCfg_MsgPool          0x00005004   0x640  Data  Gb  os_cfg_app.o [1]
_OSCfg_MsgPoolBasePtr   0xfff01dd8     0x4  Data  Gb  os_cfg_app.o [1]
_OSCfg_MsgPoolSize      0xfff01e1c     0x2  Data  Gb  os_cfg_app.o [1]
_OSCfg_MsgPoolSizeRAM   0xfff01dd4     0x4  Data  Gb  os_cfg_app.o [1]
_OSCfg_StkSizeMin       0xfff01ddc     0x4  Data  Gb  os_cfg_app.o [1]
_OSCfg_TickRate_Hz      0xfff01de0     0x4  Data  Gb  os_cfg_app.o [1]
_OSCfg_TickTaskPrio     0xfff01db3     0x1  Data  Gb  os_cfg_app.o [1]
_OSCfg_TickTaskStk      0x00006c44   0x200  Data  Gb  os_cfg_app.o [1]
_OSCfg_TickTaskStkBasePtr
                        0xfff01de4     0x4  Data  Gb  os_cfg_app.o [1]
_OSCfg_TickTaskStkLimit
                        0xfff01de8     0x4  Data  Gb  os_cfg_app.o [1]
_OSCfg_TickTaskStkSize  0xfff01dec     0x4  Data  Gb  os_cfg_app.o [1]
_OSCfg_TickTaskStkSizeRAM
                        0xfff01df0     0x4  Data  Gb  os_cfg_app.o [1]
_OSCfg_TmrTaskPrio      0xfff01e52     0x1  Data  Gb  os_cfg_app.o [1]
_OSCfg_TmrTaskRate_Hz   0xfff01df4     0x4  Data  Gb  os_cfg_app.o [1]
_OSCfg_TmrTaskStk       0x00006e44   0x200  Data  Gb  os_cfg_app.o [1]
_OSCfg_TmrTaskStkBasePtr
                        0xfff01df8     0x4  Data  Gb  os_cfg_app.o [1]
_OSCfg_TmrTaskStkLimit  0xfff01dfc     0x4  Data  Gb  os_cfg_app.o [1]
_OSCfg_TmrTaskStkSize   0xfff01e00     0x4  Data  Gb  os_cfg_app.o [1]
_OSCfg_TmrTaskStkSizeRAM
                        0xfff01e04     0x4  Data  Gb  os_cfg_app.o [1]
_OSCtxSw                0xfff03ad5     0x9  Code  Gb  os_cpu_c.o [1]
_OSCtxSwISR             0xfff03cef          Code  Gb  os_cpu_a.o [1]
_OSDbg_AppHooksEn       0xfff01e55     0x1  Data  Gb  os_dbg.o [1]
_OSDbg_ArgChkEn         0xfff01e54     0x1  Data  Gb  os_dbg.o [1]
_OSDbg_CalledFromISRChkEn
                        0xfff01e56     0x1  Data  Gb  os_dbg.o [1]
_OSDbg_DataSize         0xfff01e14     0x4  Data  Gb  os_dbg.o [1]
_OSDbg_DbgEn            0xfff01e53     0x1  Data  Gb  os_dbg.o [1]
_OSDbg_EndiannessTest   0xfff01e0c     0x4  Data  Gb  os_dbg.o [1]
_OSDbg_FlagDelEn        0xfff01e58     0x1  Data  Gb  os_dbg.o [1]
_OSDbg_FlagEn           0xfff01e57     0x1  Data  Gb  os_dbg.o [1]
_OSDbg_FlagGrp          0xfff00e2c    0x28  Data  Gb  os_dbg.o [1]
_OSDbg_FlagGrpSize      0xfff01e20     0x2  Data  Gb  os_dbg.o [1]
_OSDbg_FlagModeClrEn    0xfff01e59     0x1  Data  Gb  os_dbg.o [1]
_OSDbg_FlagPendAbortEn  0xfff01e5a     0x1  Data  Gb  os_dbg.o [1]
_OSDbg_FlagWidth        0xfff01e22     0x2  Data  Gb  os_dbg.o [1]
_OSDbg_ISRPostDeferredEn
                        0xfff01e5b     0x1  Data  Gb  os_dbg.o [1]
_OSDbg_Mem              0xfff00e7c    0x20  Data  Gb  os_dbg.o [1]
_OSDbg_MemEn            0xfff01e5c     0x1  Data  Gb  os_dbg.o [1]
_OSDbg_MsgEn            0xfff01e5d     0x1  Data  Gb  os_dbg.o [1]
_OSDbg_MsgPoolSize      0xfff01e26     0x2  Data  Gb  os_dbg.o [1]
_OSDbg_MsgQSize         0xfff01e28     0x2  Data  Gb  os_dbg.o [1]
_OSDbg_MsgSize          0xfff01e24     0x2  Data  Gb  os_dbg.o [1]
_OSDbg_Mutex            0xfff00d64    0x30  Data  Gb  os_dbg.o [1]
_OSDbg_MutexDelEn       0xfff01e5f     0x1  Data  Gb  os_dbg.o [1]
_OSDbg_MutexEn          0xfff01e5e     0x1  Data  Gb  os_dbg.o [1]
_OSDbg_MutexPendAbortEn
                        0xfff01e60     0x1  Data  Gb  os_dbg.o [1]
_OSDbg_MutexSize        0xfff01e2a     0x2  Data  Gb  os_dbg.o [1]
_OSDbg_ObjTypeChkEn     0xfff01e61     0x1  Data  Gb  os_dbg.o [1]
_OSDbg_PendDataSize     0xfff01e2c     0x2  Data  Gb  os_dbg.o [1]
_OSDbg_PendListSize     0xfff01e2e     0x2  Data  Gb  os_dbg.o [1]
_OSDbg_PendMultiEn      0xfff01e62     0x1  Data  Gb  os_dbg.o [1]
_OSDbg_PendObjSize      0xfff01e30     0x2  Data  Gb  os_dbg.o [1]
_OSDbg_PrioMax          0xfff01e32     0x2  Data  Gb  os_dbg.o [1]
_OSDbg_PrioTblSize      0xfff01e34     0x2  Data  Gb  os_dbg.o [1]
_OSDbg_PtrSize          0xfff01e36     0x2  Data  Gb  os_dbg.o [1]
_OSDbg_Q                0xfff00d94    0x30  Data  Gb  os_dbg.o [1]
_OSDbg_QDelEn           0xfff01e64     0x1  Data  Gb  os_dbg.o [1]
_OSDbg_QEn              0xfff01e63     0x1  Data  Gb  os_dbg.o [1]
_OSDbg_QFlushEn         0xfff01e65     0x1  Data  Gb  os_dbg.o [1]
_OSDbg_QPendAbortEn     0xfff01e66     0x1  Data  Gb  os_dbg.o [1]
_OSDbg_QSize            0xfff01e38     0x2  Data  Gb  os_dbg.o [1]
_OSDbg_RdyList          0xfff01e3c     0x2  Data  Gb  os_dbg.o [1]
_OSDbg_RdyListSize      0xfff01e10     0x4  Data  Gb  os_dbg.o [1]
_OSDbg_SchedRoundRobinEn
                        0xfff01e67     0x1  Data  Gb  os_dbg.o [1]
_OSDbg_Sem              0xfff00e54    0x28  Data  Gb  os_dbg.o [1]
_OSDbg_SemDelEn         0xfff01e69     0x1  Data  Gb  os_dbg.o [1]
_OSDbg_SemEn            0xfff01e68     0x1  Data  Gb  os_dbg.o [1]
_OSDbg_SemPendAbortEn   0xfff01e6a     0x1  Data  Gb  os_dbg.o [1]
_OSDbg_SemSetEn         0xfff01e6b     0x1  Data  Gb  os_dbg.o [1]
_OSDbg_SemSize          0xfff01e3a     0x2  Data  Gb  os_dbg.o [1]
_OSDbg_StatTaskEn       0xfff01e6d     0x1  Data  Gb  os_dbg.o [1]
_OSDbg_StatTaskStkChkEn
                        0xfff01e6e     0x1  Data  Gb  os_dbg.o [1]
_OSDbg_StkWidth         0xfff01e6c     0x1  Data  Gb  os_dbg.o [1]
_OSDbg_TCBSize          0xfff01e40     0x2  Data  Gb  os_dbg.o [1]
_OSDbg_TaskChangePrioEn
                        0xfff01e6f     0x1  Data  Gb  os_dbg.o [1]
_OSDbg_TaskDelEn        0xfff01e70     0x1  Data  Gb  os_dbg.o [1]
_OSDbg_TaskProfileEn    0xfff01e73     0x1  Data  Gb  os_dbg.o [1]
_OSDbg_TaskQEn          0xfff01e71     0x1  Data  Gb  os_dbg.o [1]
_OSDbg_TaskQPendAbortEn
                        0xfff01e72     0x1  Data  Gb  os_dbg.o [1]
_OSDbg_TaskRegTblSize   0xfff01e3e     0x2  Data  Gb  os_dbg.o [1]
_OSDbg_TaskSemPendAbortEn
                        0xfff01e74     0x1  Data  Gb  os_dbg.o [1]
_OSDbg_TaskSuspendEn    0xfff01e75     0x1  Data  Gb  os_dbg.o [1]
_OSDbg_TickListSize     0xfff01e42     0x2  Data  Gb  os_dbg.o [1]
_OSDbg_TimeDlyHMSMEn    0xfff01e76     0x1  Data  Gb  os_dbg.o [1]
_OSDbg_TimeDlyResumeEn  0xfff01e77     0x1  Data  Gb  os_dbg.o [1]
_OSDbg_Tmr              0xfff00dc4    0x30  Data  Gb  os_dbg.o [1]
_OSDbg_TmrDelEn         0xfff01e79     0x1  Data  Gb  os_dbg.o [1]
_OSDbg_TmrEn            0xfff01e78     0x1  Data  Gb  os_dbg.o [1]
_OSDbg_TmrSize          0xfff01e44     0x2  Data  Gb  os_dbg.o [1]
_OSDbg_VersionNbr       0xfff01e46     0x2  Data  Gb  os_dbg.o [1]
_OSFlagCreate           0xfff042e9    0x65  Code  Gb  os_flag.o [1]
_OSFlagDbgListPtr       0x00007c50     0x4  Data  Gb  os_var.o [1]
_OSFlagPend             0xfff03fca   0x31f  Code  Gb  os_flag.o [1]
_OSFlagPost             0xfff03fa4    0x26  Code  Gb  os_flag.o [1]
_OSFlagQty              0x00007ca8     0x2  Data  Gb  os_var.o [1]
_OSIdleTaskCtr          0x00007c4c     0x4  Data  Gb  os_var.o [1]
_OSIdleTaskHook         0xfff03cb7    0x14  Code  Gb  os_cpu_c.o [1]
_OSIdleTaskTCB          0x00007728    0xc4  Data  Gb  os_var.o [1]
_OSInit                 0xfff02857   0x173  Code  Gb  os_core.o [1]
_OSInitHook             0xfff03c93    0x24  Code  Gb  os_cpu_c.o [1]
_OSIntCtxSw             0xfff03acc     0x9  Code  Gb  os_cpu_c.o [1]
_OSIntEnter             0xfff0282b    0x2c  Code  Gb  os_core.o [1]
_OSIntExit              0xfff02711   0x11a  Code  Gb  os_core.o [1]
_OSIntNestingCtr        0x00007cbe     0x1  Data  Gb  os_var.o [1]
_OSMsgPool              0x00007bf4     0xc  Data  Gb  os_var.o [1]
_OSMutexCreate          0xfff0499c    0x6a  Code  Gb  os_mutex.o [1]
_OSMutexDbgListPtr      0x00007c54     0x4  Data  Gb  os_var.o [1]
_OSMutexPend            0xfff047d8   0x1c4  Code  Gb  os_mutex.o [1]
_OSMutexPost            0xfff0465c   0x17c  Code  Gb  os_mutex.o [1]
_OSMutexQty             0x00007caa     0x2  Data  Gb  os_var.o [1]
_OSPrioCur              0x00007cc0     0x1  Data  Gb  os_var.o [1]
_OSPrioHighRdy          0x00007cc1     0x1  Data  Gb  os_var.o [1]
_OSPrioSaved            0x00007cc2     0x1  Data  Gb  os_var.o [1]
_OSPrioTbl              0x00007c2c     0x4  Data  Gb  os_prio.o [1]
_OSQCreate              0xfff04cb5    0x68  Code  Gb  os_q.o [1]
_OSQDbgListPtr          0x00007c58     0x4  Data  Gb  os_var.o [1]
_OSQPend                0xfff04b2b   0x18a  Code  Gb  os_q.o [1]
_OSQPost                0xfff04b03    0x28  Code  Gb  os_q.o [1]
_OSQQty                 0x00007cac     0x2  Data  Gb  os_var.o [1]
_OSRdyList              0x00007974    0xc0  Data  Gb  os_var.o [1]
_OSRunning              0x00007cbf     0x1  Data  Gb  os_var.o [1]
_OSSched                0xfff0265b    0xb6  Code  Gb  os_core.o [1]
_OSSchedLock            0xfff025f2    0x69  Code  Gb  os_core.o [1]
_OSSchedLockNestingCtr  0x00007cc3     0x1  Data  Gb  os_var.o [1]
_OSSchedLockTimeBegin   0x00007cae     0x2  Data  Gb  os_var.o [1]
_OSSchedLockTimeMax     0x00007cb0     0x2  Data  Gb  os_var.o [1]
_OSSchedLockTimeMaxCur  0x00007cb2     0x2  Data  Gb  os_var.o [1]
_OSSchedRoundRobinDfltTimeQuanta
                        0x00007c5c     0x4  Data  Gb  os_var.o [1]
_OSSchedRoundRobinEn    0x00007cc4     0x1  Data  Gb  os_var.o [1]
_OSSchedUnlock          0xfff0255f    0x93  Code  Gb  os_core.o [1]
_OSSemCreate            0xfff04fdc    0x65  Code  Gb  os_sem.o [1]
_OSSemDbgListPtr        0x00007c60     0x4  Data  Gb  os_var.o [1]
_OSSemPend              0xfff04e58   0x184  Code  Gb  os_sem.o [1]
_OSSemPost              0xfff04e38    0x20  Code  Gb  os_sem.o [1]
_OSSemQty               0x00007cb4     0x2  Data  Gb  os_var.o [1]
_OSStart                0xfff024fc    0x63  Code  Gb  os_core.o [1]
_OSStartHighRdy         0xfff03ccb          Code  Gb  os_cpu_a.o [1]
_OSTCBCurPtr            0x00007c8c     0x4  Data  Gb  os_var.o [1]
_OSTCBHighRdyPtr        0x00007c90     0x4  Data  Gb  os_var.o [1]
_OSTaskCreate           0xfff03988   0x144  Code  Gb  os_task.o [1]
_OSTaskCreateHook       0xfff03c76    0x1d  Code  Gb  os_cpu_c.o [1]
_OSTaskCtxSwCtr         0x00007c64     0x4  Data  Gb  os_var.o [1]
_OSTaskDbgListPtr       0x00007c68     0x4  Data  Gb  os_var.o [1]
_OSTaskDel              0xfff0380c   0x17c  Code  Gb  os_task.o [1]
_OSTaskDelHook          0xfff03c59    0x1d  Code  Gb  os_cpu_c.o [1]
_OSTaskQty              0x00007cb6     0x2  Data  Gb  os_var.o [1]
_OSTaskRegNextAvailID   0x00007cc5     0x1  Data  Gb  os_var.o [1]
_OSTaskSemPend          0xfff03614   0x1f8  Code  Gb  os_task.o [1]
_OSTaskSemPost          0xfff035f4    0x20  Code  Gb  os_task.o [1]
_OSTaskStkInit          0xfff03bb1    0xa8  Code  Gb  os_cpu_c.o [1]
_OSTaskSwHook           0xfff03af6    0xbb  Code  Gb  os_cpu_c.o [1]
_OSTickCtr              0x00007c6c     0x4  Data  Gb  os_var.o [1]
_OSTickListDly          0x00007c08     0x8  Data  Gb  os_var.o [1]
_OSTickListTimeout      0x00007c10     0x8  Data  Gb  os_var.o [1]
_OSTickTaskTCB          0x000077ec    0xc4  Data  Gb  os_var.o [1]
_OSTickTaskTimeMax      0x00007c70     0x4  Data  Gb  os_var.o [1]
_OSTimeDlyHMSM          0xfff06914   0x104  Code  Gb  os_time.o [1]
_OSTimeTick             0xfff068af    0x65  Code  Gb  os_time.o [1]
_OSTimeTickHook         0xfff03ade    0x18  Code  Gb  os_cpu_c.o [1]
_OSTmrDbgListPtr        0x00007c74     0x4  Data  Gb  os_var.o [1]
_OSTmrListEntries       0x00007cb8     0x2  Data  Gb  os_var.o [1]
_OSTmrListPtr           0x00007c78     0x4  Data  Gb  os_var.o [1]
_OSTmrMutex             0x00007b1c    0x30  Data  Gb  os_var.o [1]
_OSTmrTaskTCB           0x000078b0    0xc4  Data  Gb  os_var.o [1]
_OSTmrTaskTimeMax       0x00007c7c     0x4  Data  Gb  os_var.o [1]
_OSTmrTickCtr           0x00007c80     0x4  Data  Gb  os_var.o [1]
_OSTmrUpdateCnt         0x00007c84     0x4  Data  Gb  os_var.o [1]
_OSTmrUpdateCtr         0x00007c88     0x4  Data  Gb  os_var.o [1]
_OS_AppIdleTaskHookPtr  0x00007c3c     0x4  Data  Gb  os_var.o [1]
_OS_AppStatTaskHookPtr  0x00007c40     0x4  Data  Gb  os_var.o [1]
_OS_AppTaskCreateHookPtr
                        0x00007c30     0x4  Data  Gb  os_var.o [1]
_OS_AppTaskDelHookPtr   0x00007c34     0x4  Data  Gb  os_var.o [1]
_OS_AppTaskReturnHookPtr
                        0x00007c38     0x4  Data  Gb  os_var.o [1]
_OS_AppTaskSwHookPtr    0x00007c44     0x4  Data  Gb  os_var.o [1]
_OS_AppTimeTickHookPtr  0x00007c48     0x4  Data  Gb  os_var.o [1]
_OS_BSP_TickISR         0xfff07906    0x2a  Code  Gb  os_bsp.o [1]
_OS_BSP_TickInit        0xfff07930    0x9e  Code  Gb  os_bsp.o [1]
_OS_Dbg_Init            0xfff05255   0x155  Code  Gb  os_dbg.o [1]
_OS_FlagBlock           0xfff03f69    0x3b  Code  Gb  os_flag.o [1]
_OS_FlagDbgListAdd      0xfff03f24    0x31  Code  Gb  os_flag.o [1]
_OS_FlagInit            0xfff03f55    0x14  Code  Gb  os_flag.o [1]
_OS_FlagPost            0xfff03dbd   0x167  Code  Gb  os_flag.o [1]
_OS_FlagTaskRdy         0xfff03d6c    0x51  Code  Gb  os_flag.o [1]
_OS_IdleTask            0xfff024ba    0x42  Code  Gb  os_core.o [1]
_OS_IdleTaskInit        0xfff02464    0x56  Code  Gb  os_core.o [1]
_OS_KA_IPL_Boundary     0x00007c28     0x4  Data  Gb  os_cpu_c.o [1]
_OS_MsgPoolInit         0xfff044f4    0x79  Code  Gb  os_msg.o [1]
_OS_MsgQFreeAll         0xfff044a2    0x52  Code  Gb  os_msg.o [1]
_OS_MsgQGet             0xfff04414    0x7f  Code  Gb  os_msg.o [1]
_OS_MsgQInit            0xfff04493     0xf  Code  Gb  os_msg.o [1]
_OS_MsgQPut             0xfff0434e    0xc6  Code  Gb  os_msg.o [1]
_OS_MutexDbgListAdd     0xfff0462b    0x31  Code  Gb  os_mutex.o [1]
_OS_MutexGrpAdd         0xfff04610     0x7  Code  Gb  os_mutex.o [1]
_OS_MutexGrpPostAll     0xfff0456d    0x5a  Code  Gb  os_mutex.o [1]
_OS_MutexGrpPrioFindHighest
                        0xfff045c7    0x32  Code  Gb  os_mutex.o [1]
_OS_MutexGrpRemove      0xfff045f9    0x17  Code  Gb  os_mutex.o [1]
_OS_MutexInit           0xfff04617    0x14  Code  Gb  os_mutex.o [1]
_OS_Pend                0xfff023f3    0x71  Code  Gb  os_core.o [1]
_OS_PendDataInit        0xfff023c8    0x2b  Code  Gb  os_core.o [1]
_OS_PendDbgNameAdd      0xfff0238f    0x39  Code  Gb  os_core.o [1]
_OS_PendDbgNameRemove   0xfff02371    0x1e  Code  Gb  os_core.o [1]
_OS_PendListChangePrio  0xfff02337    0x3a  Code  Gb  os_core.o [1]
_OS_PendListInit        0xfff0232d     0xa  Code  Gb  os_core.o [1]
_OS_PendListInsertPrio  0xfff022c1    0x6c  Code  Gb  os_core.o [1]
_OS_PendListRemove      0xfff0228e    0x33  Code  Gb  os_core.o [1]
_OS_PendListRemove1     0xfff0224e    0x40  Code  Gb  os_core.o [1]
_OS_Post                0xfff0218c    0xc2  Code  Gb  os_core.o [1]
_OS_Post1               0xfff0215f    0x2d  Code  Gb  os_core.o [1]
_OS_PrioGetHighest      0xfff03259    0x28  Code  Gb  os_prio.o [1]
_OS_PrioInit            0xfff03281    0x15  Code  Gb  os_prio.o [1]
_OS_PrioInsert          0xfff03226    0x33  Code  Gb  os_prio.o [1]
_OS_PrioRemove          0xfff031f0    0x36  Code  Gb  os_prio.o [1]
_OS_QDbgListAdd         0xfff04ad2    0x31  Code  Gb  os_q.o [1]
_OS_QInit               0xfff04abe    0x14  Code  Gb  os_q.o [1]
_OS_QPost               0xfff04a06    0xb8  Code  Gb  os_q.o [1]
_OS_RdyListInit         0xfff0213b    0x24  Code  Gb  os_core.o [1]
_OS_RdyListInsert       0xfff02117    0x24  Code  Gb  os_core.o [1]
_OS_RdyListInsertHead   0xfff020df    0x38  Code  Gb  os_core.o [1]
_OS_RdyListInsertTail   0xfff020a8    0x37  Code  Gb  os_core.o [1]
_OS_RdyListMoveHeadToTail
                        0xfff02070    0x38  Code  Gb  os_core.o [1]
_OS_RdyListRemove       0xfff0200c    0x64  Code  Gb  os_core.o [1]
_OS_SchedLockTimeMeasStart
                        0xfff01ff5    0x17  Code  Gb  os_core.o [1]
_OS_SchedLockTimeMeasStop
                        0xfff01fab    0x4a  Code  Gb  os_core.o [1]
_OS_SchedRoundRobin     0xfff01ea2   0x109  Code  Gb  os_core.o [1]
_OS_SemDbgListAdd       0xfff04e07    0x31  Code  Gb  os_sem.o [1]
_OS_SemInit             0xfff04df3    0x14  Code  Gb  os_sem.o [1]
_OS_SemPost             0xfff04d1d    0xd6  Code  Gb  os_sem.o [1]
_OS_TaskBlock           0xfff01e7a    0x28  Code  Gb  os_core.o [1]
_OS_TaskChangePrio      0xfff03296    0xcd  Code  Gb  os_task.o [1]
_OS_TaskDbgListAdd      0xfff035c6    0x2e  Code  Gb  os_task.o [1]
_OS_TaskDbgListRemove   0xfff0358b    0x3b  Code  Gb  os_task.o [1]
_OS_TaskInit            0xfff0356f    0x1c  Code  Gb  os_task.o [1]
_OS_TaskInitTCB         0xfff03491    0xde  Code  Gb  os_task.o [1]
_OS_TaskSemPost         0xfff03363   0x12e  Code  Gb  os_task.o [1]
_OS_TickListInsert      0xfff02c85    0x8f  Code  Gb  os_tick.o [1]
_OS_TickListInsertDly   0xfff02bc3    0xc2  Code  Gb  os_tick.o [1]
_OS_TickListRemove      0xfff02b60    0x63  Code  Gb  os_tick.o [1]
_OS_TickListUpdateDly   0xfff02ac7    0x99  Code  Lc  os_tick.o [1]
_OS_TickListUpdateTimeout
                        0xfff029ca    0xfd  Code  Lc  os_tick.o [1]
_OS_TickTask            0xfff02dd9    0x73  Code  Gb  os_tick.o [1]
_OS_TickTaskInit        0xfff02d14    0xc5  Code  Gb  os_tick.o [1]
_OS_TmrInit             0xfff05149   0x10c  Code  Gb  os_tmr.o [1]
_OS_TmrLock             0xfff05052    0x19  Code  Lc  os_tmr.o [1]
_OS_TmrTask             0xfff0506b    0x98  Code  Gb  os_tmr.o [1]
_OS_TmrUnlink           0xfff05103    0x46  Code  Gb  os_tmr.o [1]
_OS_TmrUnlock           0xfff05041    0x11  Code  Lc  os_tmr.o [1]
_ST7579_Close           0xfff05ec3     0x6  Code  Gb  ST7579_LCD.o [1]
_ST7579_Config          0xfff058e5    0x41  Code  Gb  ST7579_LCD.o [1]
_ST7579_Open            0xfff05ec9    0x53  Code  Gb  ST7579_LCD.o [1]
_ST7579_Read            0xfff05a7d    0xb2  Code  Gb  ST7579_LCD.o [1]
_ST7579_Send16bitsCommand
                        0xfff058c0    0x25  Code  Gb  ST7579_LCD.o [1]
_ST7579_SetChar         0xfff057ce    0x2b  Code  Gb  ST7579_LCD.o [1]
_ST7579_SetFrameRate    0xfff05825    0x9b  Code  Gb  ST7579_LCD.o [1]
_ST7579_SetLine         0xfff05708    0xc6  Code  Gb  ST7579_LCD.o [1]
_ST7579_SetPage         0xfff057f9    0x2c  Code  Gb  ST7579_LCD.o [1]
_ST7579_SetSystemBiasBooster
                        0xfff0598f    0xee  Code  Gb  ST7579_LCD.o [1]
_ST7579_SetVO_Range     0xfff05926    0x69  Code  Gb  ST7579_LCD.o [1]
_ST7579_Write           0xfff05b2f   0x394  Code  Gb  ST7579_LCD.o [1]
_SetSendCommand         0xfff07cac     0x8  Code  Lc  YRDKRX63N_RSPI0.o [1]
_SetSendData            0xfff07ca4     0x8  Code  Lc  YRDKRX63N_RSPI0.o [1]
_Str_Len                0xfff07c01    0x13  Code  Gb  lib_str.o [1]
_Str_Len_N              0xfff07be6    0x1b  Code  Gb  lib_str.o [1]
_Workspace              0x00007c00     0x8  Data  Gb  Glyph.o [1]
_YRDKRX63N_CommandSend  0xfff07c92    0x12  Code  Gb  YRDKRX63N_RSPI0.o [1]
_YRDKRX63N_DataSend     0xfff07c80    0x12  Code  Gb  YRDKRX63N_RSPI0.o [1]
_YRDKRX63N_RSPIEnd      0xfff07d07     0x8  Code  Gb  YRDKRX63N_RSPI0.o [1]
_YRDKRX63N_RSPIOpen     0xfff07d17   0x14e  Code  Gb  YRDKRX63N_RSPI0.o [1]
_YRDKRX63N_RSPIStart    0xfff07d0f     0x8  Code  Gb  YRDKRX63N_RSPI0.o [1]
_YRDKRX63N_RSPITransferOutWord8Bit
                        0xfff07cb4    0x10  Code  Gb  YRDKRX63N_RSPI0.o [1]
_YRDKRX63N_RSPITransferOutWords
                        0xfff07cc4    0x43  Code  Gb  YRDKRX63N_RSPI0.o [1]
__LitobSmall            0xfff05f4b    0xde  Code  Lc  xprintfsmall.o [4]
__PrintfSmall           0xfff06029   0x395  Code  Gb  xprintfsmall.o [4]
__PutcharsSmall         0xfff05f1c    0x2f  Code  Lc  xprintfsmall.o [4]
__SProut                0xfff0830a     0xb  Code  Gb  xsprout.o [4]
___DebugBreak           0xfff06ad3     0x1  Code  Gb  __dbg_break.o [3]
___NMI_handler          0xfff08172          Code  Wk  def_nmi_handlers.o [4]
___dwrite               0xfff06af0    0x15  Code  Gb  __dbg_xxdwrite.o [3]
___exit                 0xfff06ad4    0x12  Code  Gb  __dbg_xxexit.o [3]
___iar_ForwardingLockFunctions {Abs}
                        0x00000000           --   Gb  xsyslock.o [4]
___iar_Memchr           0xfff063e0    0x16  Code  Gb  memchr.o [4]
___iar_ReportAssert     0xfff06a18    0x72  Code  Gb  xreportassert.o [4]
___iar_Strchr           0xfff063be    0x13  Code  Gb  strchr.o [4]
___iar_data_init2       0xfff08212    0x15  Code  Gb  data_init2.o [4]
___iar_zero_init2       0xfff082a4    0x18  Code  Gb  zero_init2.o [4]
___interrupt_0          0xfff08284    0x20  Code  Wk  interrupt_table.o [4]
___interrupt_1          0xfff08284    0x20  Code  Wk  interrupt_table.o [4]
___interrupt_10         0xfff08284    0x20  Code  Wk  interrupt_table.o [4]
___interrupt_100        0xfff08284    0x20  Code  Wk  interrupt_table.o [4]
___interrupt_101        0xfff08284    0x20  Code  Wk  interrupt_table.o [4]
___interrupt_102        0xfff08284    0x20  Code  Wk  interrupt_table.o [4]
___interrupt_103        0xfff08284    0x20  Code  Wk  interrupt_table.o [4]
___interrupt_104        0xfff08284    0x20  Code  Wk  interrupt_table.o [4]
___interrupt_105        0xfff08284    0x20  Code  Wk  interrupt_table.o [4]
___interrupt_106        0xfff08284    0x20  Code  Wk  interrupt_table.o [4]
___interrupt_107        0xfff08284    0x20  Code  Wk  interrupt_table.o [4]
___interrupt_108        0xfff08284    0x20  Code  Wk  interrupt_table.o [4]
___interrupt_109        0xfff08284    0x20  Code  Wk  interrupt_table.o [4]
___interrupt_11         0xfff08284    0x20  Code  Wk  interrupt_table.o [4]
___interrupt_110        0xfff08284    0x20  Code  Wk  interrupt_table.o [4]
___interrupt_111        0xfff08284    0x20  Code  Wk  interrupt_table.o [4]
___interrupt_112        0xfff08284    0x20  Code  Wk  interrupt_table.o [4]
___interrupt_113        0xfff08284    0x20  Code  Wk  interrupt_table.o [4]
___interrupt_114        0xfff08284    0x20  Code  Wk  interrupt_table.o [4]
___interrupt_115        0xfff08284    0x20  Code  Wk  interrupt_table.o [4]
___interrupt_116        0xfff08284    0x20  Code  Wk  interrupt_table.o [4]
___interrupt_117        0xfff08284    0x20  Code  Wk  interrupt_table.o [4]
___interrupt_118        0xfff08284    0x20  Code  Wk  interrupt_table.o [4]
___interrupt_119        0xfff08284    0x20  Code  Wk  interrupt_table.o [4]
___interrupt_12         0xfff08284    0x20  Code  Wk  interrupt_table.o [4]
___interrupt_120        0xfff08284    0x20  Code  Wk  interrupt_table.o [4]
___interrupt_121        0xfff08284    0x20  Code  Wk  interrupt_table.o [4]
___interrupt_122        0xfff08284    0x20  Code  Wk  interrupt_table.o [4]
___interrupt_123        0xfff08284    0x20  Code  Wk  interrupt_table.o [4]
___interrupt_124        0xfff08284    0x20  Code  Wk  interrupt_table.o [4]
___interrupt_125        0xfff08284    0x20  Code  Wk  interrupt_table.o [4]
___interrupt_126        0xfff08284    0x20  Code  Wk  interrupt_table.o [4]
___interrupt_127        0xfff08284    0x20  Code  Wk  interrupt_table.o [4]
___interrupt_128        0xfff08284    0x20  Code  Wk  interrupt_table.o [4]
___interrupt_129        0xfff08284    0x20  Code  Wk  interrupt_table.o [4]
___interrupt_13         0xfff08284    0x20  Code  Wk  interrupt_table.o [4]
___interrupt_130        0xfff08284    0x20  Code  Wk  interrupt_table.o [4]
___interrupt_131        0xfff08284    0x20  Code  Wk  interrupt_table.o [4]
___interrupt_132        0xfff08284    0x20  Code  Wk  interrupt_table.o [4]
___interrupt_133        0xfff08284    0x20  Code  Wk  interrupt_table.o [4]
___interrupt_134        0xfff08284    0x20  Code  Wk  interrupt_table.o [4]
___interrupt_135        0xfff08284    0x20  Code  Wk  interrupt_table.o [4]
___interrupt_136        0xfff08284    0x20  Code  Wk  interrupt_table.o [4]
___interrupt_137        0xfff08284    0x20  Code  Wk  interrupt_table.o [4]
___interrupt_138        0xfff08284    0x20  Code  Wk  interrupt_table.o [4]
___interrupt_139        0xfff08284    0x20  Code  Wk  interrupt_table.o [4]
___interrupt_14         0xfff08284    0x20  Code  Wk  interrupt_table.o [4]
___interrupt_140        0xfff08284    0x20  Code  Wk  interrupt_table.o [4]
___interrupt_141        0xfff08284    0x20  Code  Wk  interrupt_table.o [4]
___interrupt_142        0xfff08284    0x20  Code  Wk  interrupt_table.o [4]
___interrupt_143        0xfff08284    0x20  Code  Wk  interrupt_table.o [4]
___interrupt_144        0xfff08284    0x20  Code  Wk  interrupt_table.o [4]
___interrupt_145        0xfff08284    0x20  Code  Wk  interrupt_table.o [4]
___interrupt_146        0xfff08284    0x20  Code  Wk  interrupt_table.o [4]
___interrupt_147        0xfff08284    0x20  Code  Wk  interrupt_table.o [4]
___interrupt_148        0xfff08284    0x20  Code  Wk  interrupt_table.o [4]
___interrupt_149        0xfff08284    0x20  Code  Wk  interrupt_table.o [4]
___interrupt_15         0xfff08284    0x20  Code  Wk  interrupt_table.o [4]
___interrupt_150        0xfff08284    0x20  Code  Wk  interrupt_table.o [4]
___interrupt_151        0xfff08284    0x20  Code  Wk  interrupt_table.o [4]
___interrupt_152        0xfff08284    0x20  Code  Wk  interrupt_table.o [4]
___interrupt_153        0xfff08284    0x20  Code  Wk  interrupt_table.o [4]
___interrupt_154        0xfff08284    0x20  Code  Wk  interrupt_table.o [4]
___interrupt_155        0xfff08284    0x20  Code  Wk  interrupt_table.o [4]
___interrupt_156        0xfff08284    0x20  Code  Wk  interrupt_table.o [4]
___interrupt_157        0xfff08284    0x20  Code  Wk  interrupt_table.o [4]
___interrupt_158        0xfff08284    0x20  Code  Wk  interrupt_table.o [4]
___interrupt_159        0xfff08284    0x20  Code  Wk  interrupt_table.o [4]
___interrupt_16         0xfff08284    0x20  Code  Wk  interrupt_table.o [4]
___interrupt_160        0xfff08284    0x20  Code  Wk  interrupt_table.o [4]
___interrupt_161        0xfff08284    0x20  Code  Wk  interrupt_table.o [4]
___interrupt_162        0xfff08284    0x20  Code  Wk  interrupt_table.o [4]
___interrupt_163        0xfff08284    0x20  Code  Wk  interrupt_table.o [4]
___interrupt_164        0xfff08284    0x20  Code  Wk  interrupt_table.o [4]
___interrupt_165        0xfff08284    0x20  Code  Wk  interrupt_table.o [4]
___interrupt_166        0xfff08284    0x20  Code  Wk  interrupt_table.o [4]
___interrupt_167        0xfff08284    0x20  Code  Wk  interrupt_table.o [4]
___interrupt_168        0xfff08284    0x20  Code  Wk  interrupt_table.o [4]
___interrupt_169        0xfff08284    0x20  Code  Wk  interrupt_table.o [4]
___interrupt_17         0xfff08284    0x20  Code  Wk  interrupt_table.o [4]
___interrupt_170        0xfff08284    0x20  Code  Wk  interrupt_table.o [4]
___interrupt_171        0xfff08284    0x20  Code  Wk  interrupt_table.o [4]
___interrupt_172        0xfff08284    0x20  Code  Wk  interrupt_table.o [4]
___interrupt_173        0xfff08284    0x20  Code  Wk  interrupt_table.o [4]
___interrupt_174        0xfff08284    0x20  Code  Wk  interrupt_table.o [4]
___interrupt_175        0xfff08284    0x20  Code  Wk  interrupt_table.o [4]
___interrupt_176        0xfff08284    0x20  Code  Wk  interrupt_table.o [4]
___interrupt_177        0xfff08284    0x20  Code  Wk  interrupt_table.o [4]
___interrupt_178        0xfff08284    0x20  Code  Wk  interrupt_table.o [4]
___interrupt_179        0xfff08284    0x20  Code  Wk  interrupt_table.o [4]
___interrupt_18         0xfff08284    0x20  Code  Wk  interrupt_table.o [4]
___interrupt_180        0xfff08284    0x20  Code  Wk  interrupt_table.o [4]
___interrupt_181        0xfff08284    0x20  Code  Wk  interrupt_table.o [4]
___interrupt_182        0xfff08284    0x20  Code  Wk  interrupt_table.o [4]
___interrupt_183        0xfff08284    0x20  Code  Wk  interrupt_table.o [4]
___interrupt_184        0xfff08284    0x20  Code  Wk  interrupt_table.o [4]
___interrupt_185        0xfff08284    0x20  Code  Wk  interrupt_table.o [4]
___interrupt_186        0xfff08284    0x20  Code  Wk  interrupt_table.o [4]
___interrupt_187        0xfff08284    0x20  Code  Wk  interrupt_table.o [4]
___interrupt_188        0xfff08284    0x20  Code  Wk  interrupt_table.o [4]
___interrupt_189        0xfff08284    0x20  Code  Wk  interrupt_table.o [4]
___interrupt_19         0xfff08284    0x20  Code  Wk  interrupt_table.o [4]
___interrupt_190        0xfff08284    0x20  Code  Wk  interrupt_table.o [4]
___interrupt_191        0xfff08284    0x20  Code  Wk  interrupt_table.o [4]
___interrupt_192        0xfff08284    0x20  Code  Wk  interrupt_table.o [4]
___interrupt_193        0xfff08284    0x20  Code  Wk  interrupt_table.o [4]
___interrupt_194        0xfff08284    0x20  Code  Wk  interrupt_table.o [4]
___interrupt_195        0xfff08284    0x20  Code  Wk  interrupt_table.o [4]
___interrupt_196        0xfff08284    0x20  Code  Wk  interrupt_table.o [4]
___interrupt_197        0xfff08284    0x20  Code  Wk  interrupt_table.o [4]
___interrupt_198        0xfff08284    0x20  Code  Wk  interrupt_table.o [4]
___interrupt_199        0xfff08284    0x20  Code  Wk  interrupt_table.o [4]
___interrupt_2          0xfff08284    0x20  Code  Wk  interrupt_table.o [4]
___interrupt_20         0xfff08284    0x20  Code  Wk  interrupt_table.o [4]
___interrupt_200        0xfff08284    0x20  Code  Wk  interrupt_table.o [4]
___interrupt_201        0xfff08284    0x20  Code  Wk  interrupt_table.o [4]
___interrupt_202        0xfff08284    0x20  Code  Wk  interrupt_table.o [4]
___interrupt_203        0xfff08284    0x20  Code  Wk  interrupt_table.o [4]
___interrupt_204        0xfff08284    0x20  Code  Wk  interrupt_table.o [4]
___interrupt_205        0xfff08284    0x20  Code  Wk  interrupt_table.o [4]
___interrupt_206        0xfff08284    0x20  Code  Wk  interrupt_table.o [4]
___interrupt_207        0xfff08284    0x20  Code  Wk  interrupt_table.o [4]
___interrupt_208        0xfff08284    0x20  Code  Wk  interrupt_table.o [4]
___interrupt_209        0xfff08284    0x20  Code  Wk  interrupt_table.o [4]
___interrupt_21         0xfff08284    0x20  Code  Wk  interrupt_table.o [4]
___interrupt_210        0xfff08284    0x20  Code  Wk  interrupt_table.o [4]
___interrupt_211        0xfff08284    0x20  Code  Wk  interrupt_table.o [4]
___interrupt_212        0xfff08284    0x20  Code  Wk  interrupt_table.o [4]
___interrupt_213        0xfff08284    0x20  Code  Wk  interrupt_table.o [4]
___interrupt_214        0xfff08284    0x20  Code  Wk  interrupt_table.o [4]
___interrupt_215        0xfff08284    0x20  Code  Wk  interrupt_table.o [4]
___interrupt_216        0xfff08284    0x20  Code  Wk  interrupt_table.o [4]
___interrupt_217        0xfff08284    0x20  Code  Wk  interrupt_table.o [4]
___interrupt_218        0xfff08284    0x20  Code  Wk  interrupt_table.o [4]
___interrupt_219        0xfff08284    0x20  Code  Wk  interrupt_table.o [4]
___interrupt_22         0xfff08284    0x20  Code  Wk  interrupt_table.o [4]
___interrupt_220        0xfff08284    0x20  Code  Wk  interrupt_table.o [4]
___interrupt_221        0xfff08284    0x20  Code  Wk  interrupt_table.o [4]
___interrupt_222        0xfff08284    0x20  Code  Wk  interrupt_table.o [4]
___interrupt_223        0xfff08284    0x20  Code  Wk  interrupt_table.o [4]
___interrupt_224        0xfff08284    0x20  Code  Wk  interrupt_table.o [4]
___interrupt_225        0xfff08284    0x20  Code  Wk  interrupt_table.o [4]
___interrupt_226        0xfff08284    0x20  Code  Wk  interrupt_table.o [4]
___interrupt_227        0xfff08284    0x20  Code  Wk  interrupt_table.o [4]
___interrupt_228        0xfff08284    0x20  Code  Wk  interrupt_table.o [4]
___interrupt_229        0xfff08284    0x20  Code  Wk  interrupt_table.o [4]
___interrupt_23         0xfff08284    0x20  Code  Wk  interrupt_table.o [4]
___interrupt_230        0xfff08284    0x20  Code  Wk  interrupt_table.o [4]
___interrupt_231        0xfff08284    0x20  Code  Wk  interrupt_table.o [4]
___interrupt_232        0xfff08284    0x20  Code  Wk  interrupt_table.o [4]
___interrupt_233        0xfff08284    0x20  Code  Wk  interrupt_table.o [4]
___interrupt_234        0xfff08284    0x20  Code  Wk  interrupt_table.o [4]
___interrupt_235        0xfff08284    0x20  Code  Wk  interrupt_table.o [4]
___interrupt_236        0xfff08284    0x20  Code  Wk  interrupt_table.o [4]
___interrupt_237        0xfff08284    0x20  Code  Wk  interrupt_table.o [4]
___interrupt_238        0xfff08284    0x20  Code  Wk  interrupt_table.o [4]
___interrupt_239        0xfff08284    0x20  Code  Wk  interrupt_table.o [4]
___interrupt_24         0xfff08284    0x20  Code  Wk  interrupt_table.o [4]
___interrupt_240        0xfff08284    0x20  Code  Wk  interrupt_table.o [4]
___interrupt_241        0xfff08284    0x20  Code  Wk  interrupt_table.o [4]
___interrupt_242        0xfff08284    0x20  Code  Wk  interrupt_table.o [4]
___interrupt_243        0xfff08284    0x20  Code  Wk  interrupt_table.o [4]
___interrupt_244        0xfff08284    0x20  Code  Wk  interrupt_table.o [4]
___interrupt_245        0xfff08284    0x20  Code  Wk  interrupt_table.o [4]
___interrupt_246        0xfff08284    0x20  Code  Wk  interrupt_table.o [4]
___interrupt_247        0xfff08284    0x20  Code  Wk  interrupt_table.o [4]
___interrupt_248        0xfff08284    0x20  Code  Wk  interrupt_table.o [4]
___interrupt_249        0xfff08284    0x20  Code  Wk  interrupt_table.o [4]
___interrupt_25         0xfff08284    0x20  Code  Wk  interrupt_table.o [4]
___interrupt_250        0xfff08284    0x20  Code  Wk  interrupt_table.o [4]
___interrupt_251        0xfff08284    0x20  Code  Wk  interrupt_table.o [4]
___interrupt_252        0xfff08284    0x20  Code  Wk  interrupt_table.o [4]
___interrupt_253        0xfff08284    0x20  Code  Wk  interrupt_table.o [4]
___interrupt_254        0xfff08284    0x20  Code  Wk  interrupt_table.o [4]
___interrupt_255        0xfff08284    0x20  Code  Wk  interrupt_table.o [4]
___interrupt_26         0xfff08284    0x20  Code  Wk  interrupt_table.o [4]
___interrupt_27         0xfff08284    0x20  Code  Wk  interrupt_table.o [4]
___interrupt_28         0xfff08284    0x20  Code  Wk  interrupt_table.o [4]
___interrupt_29         0xfff08284    0x20  Code  Wk  interrupt_table.o [4]
___interrupt_3          0xfff08284    0x20  Code  Wk  interrupt_table.o [4]
___interrupt_30         0xfff08284    0x20  Code  Wk  interrupt_table.o [4]
___interrupt_31         0xfff08284    0x20  Code  Wk  interrupt_table.o [4]
___interrupt_32         0xfff08284    0x20  Code  Wk  interrupt_table.o [4]
___interrupt_33         0xfff08284    0x20  Code  Wk  interrupt_table.o [4]
___interrupt_34         0xfff08284    0x20  Code  Wk  interrupt_table.o [4]
___interrupt_35         0xfff08284    0x20  Code  Wk  interrupt_table.o [4]
___interrupt_36         0xfff08284    0x20  Code  Wk  interrupt_table.o [4]
___interrupt_37         0xfff08284    0x20  Code  Wk  interrupt_table.o [4]
___interrupt_38         0xfff08284    0x20  Code  Wk  interrupt_table.o [4]
___interrupt_39         0xfff08284    0x20  Code  Wk  interrupt_table.o [4]
___interrupt_4          0xfff08284    0x20  Code  Wk  interrupt_table.o [4]
___interrupt_40         0xfff08284    0x20  Code  Wk  interrupt_table.o [4]
___interrupt_41         0xfff08284    0x20  Code  Wk  interrupt_table.o [4]
___interrupt_42         0xfff08284    0x20  Code  Wk  interrupt_table.o [4]
___interrupt_43         0xfff08284    0x20  Code  Wk  interrupt_table.o [4]
___interrupt_44         0xfff08284    0x20  Code  Wk  interrupt_table.o [4]
___interrupt_45         0xfff08284    0x20  Code  Wk  interrupt_table.o [4]
___interrupt_46         0xfff08284    0x20  Code  Wk  interrupt_table.o [4]
___interrupt_47         0xfff08284    0x20  Code  Wk  interrupt_table.o [4]
___interrupt_48         0xfff08284    0x20  Code  Wk  interrupt_table.o [4]
___interrupt_49         0xfff08284    0x20  Code  Wk  interrupt_table.o [4]
___interrupt_5          0xfff08284    0x20  Code  Wk  interrupt_table.o [4]
___interrupt_50         0xfff08284    0x20  Code  Wk  interrupt_table.o [4]
___interrupt_51         0xfff08284    0x20  Code  Wk  interrupt_table.o [4]
___interrupt_52         0xfff08284    0x20  Code  Wk  interrupt_table.o [4]
___interrupt_53         0xfff08284    0x20  Code  Wk  interrupt_table.o [4]
___interrupt_54         0xfff08284    0x20  Code  Wk  interrupt_table.o [4]
___interrupt_55         0xfff08284    0x20  Code  Wk  interrupt_table.o [4]
___interrupt_56         0xfff08284    0x20  Code  Wk  interrupt_table.o [4]
___interrupt_57         0xfff08284    0x20  Code  Wk  interrupt_table.o [4]
___interrupt_58         0xfff08284    0x20  Code  Wk  interrupt_table.o [4]
___interrupt_59         0xfff08284    0x20  Code  Wk  interrupt_table.o [4]
___interrupt_6          0xfff08284    0x20  Code  Wk  interrupt_table.o [4]
___interrupt_60         0xfff08284    0x20  Code  Wk  interrupt_table.o [4]
___interrupt_61         0xfff08284    0x20  Code  Wk  interrupt_table.o [4]
___interrupt_62         0xfff08284    0x20  Code  Wk  interrupt_table.o [4]
___interrupt_63         0xfff08284    0x20  Code  Wk  interrupt_table.o [4]
___interrupt_64         0xfff08284    0x20  Code  Wk  interrupt_table.o [4]
___interrupt_65         0xfff08284    0x20  Code  Wk  interrupt_table.o [4]
___interrupt_66         0xfff08284    0x20  Code  Wk  interrupt_table.o [4]
___interrupt_67         0xfff08284    0x20  Code  Wk  interrupt_table.o [4]
___interrupt_68         0xfff08284    0x20  Code  Wk  interrupt_table.o [4]
___interrupt_69         0xfff08284    0x20  Code  Wk  interrupt_table.o [4]
___interrupt_7          0xfff08284    0x20  Code  Wk  interrupt_table.o [4]
___interrupt_70         0xfff08284    0x20  Code  Wk  interrupt_table.o [4]
___interrupt_71         0xfff08284    0x20  Code  Wk  interrupt_table.o [4]
___interrupt_72         0xfff08284    0x20  Code  Wk  interrupt_table.o [4]
___interrupt_73         0xfff08284    0x20  Code  Wk  interrupt_table.o [4]
___interrupt_74         0xfff08284    0x20  Code  Wk  interrupt_table.o [4]
___interrupt_75         0xfff08284    0x20  Code  Wk  interrupt_table.o [4]
___interrupt_76         0xfff08284    0x20  Code  Wk  interrupt_table.o [4]
___interrupt_77         0xfff08284    0x20  Code  Wk  interrupt_table.o [4]
___interrupt_78         0xfff08284    0x20  Code  Wk  interrupt_table.o [4]
___interrupt_79         0xfff08284    0x20  Code  Wk  interrupt_table.o [4]
___interrupt_8          0xfff08284    0x20  Code  Wk  interrupt_table.o [4]
___interrupt_80         0xfff08284    0x20  Code  Wk  interrupt_table.o [4]
___interrupt_81         0xfff08284    0x20  Code  Wk  interrupt_table.o [4]
___interrupt_82         0xfff08284    0x20  Code  Wk  interrupt_table.o [4]
___interrupt_83         0xfff08284    0x20  Code  Wk  interrupt_table.o [4]
___interrupt_84         0xfff08284    0x20  Code  Wk  interrupt_table.o [4]
___interrupt_85         0xfff08284    0x20  Code  Wk  interrupt_table.o [4]
___interrupt_86         0xfff08284    0x20  Code  Wk  interrupt_table.o [4]
___interrupt_87         0xfff08284    0x20  Code  Wk  interrupt_table.o [4]
___interrupt_88         0xfff08284    0x20  Code  Wk  interrupt_table.o [4]
___interrupt_89         0xfff08284    0x20  Code  Wk  interrupt_table.o [4]
___interrupt_9          0xfff08284    0x20  Code  Wk  interrupt_table.o [4]
___interrupt_90         0xfff08284    0x20  Code  Wk  interrupt_table.o [4]
___interrupt_91         0xfff08284    0x20  Code  Wk  interrupt_table.o [4]
___interrupt_92         0xfff08284    0x20  Code  Wk  interrupt_table.o [4]
___interrupt_93         0xfff08284    0x20  Code  Wk  interrupt_table.o [4]
___interrupt_94         0xfff08284    0x20  Code  Wk  interrupt_table.o [4]
___interrupt_95         0xfff08284    0x20  Code  Wk  interrupt_table.o [4]
___interrupt_96         0xfff08284    0x20  Code  Wk  interrupt_table.o [4]
___interrupt_97         0xfff08284    0x20  Code  Wk  interrupt_table.o [4]
___interrupt_98         0xfff08284    0x20  Code  Wk  interrupt_table.o [4]
___interrupt_99         0xfff08284    0x20  Code  Wk  interrupt_table.o [4]
___privileged_handler   0xfff08172          Code  Wk  def_nmi_handlers.o [4]
___rxabi_assert         0xfff06826    0x89  Code  Gb  xassert.o [4]
___undefined_handler    0xfff08172          Code  Wk  def_nmi_handlers.o [4]
___write                0xfff06ae6     0xa  Code  Gb  __dbg_xxwrite.o [3]
__exit                  0xfff0822b          Code  Gb  cexit.o [4]
__float_placeholder     0xfff08172          Code  Wk  def_nmi_handlers.o [4]
__iar_cstart_end        0xfff08212          Code  Gb  cstartup.o [1]
__iar_main_call         0xfff08202          Code  Gb  cstartup.o [1]
__iar_program_start     0xfff081f0          Code  Gb  cstartup.o [1]
__iar_reset_vector      0xfffffffc          Data  Gb  nmivec.o [4]
_abort                  0xfff06a9f     0xf  Code  Gb  __dbg_abort.o [3]
_adc_config             0xfff07f8c    0x54  Code  Lc  adc.o [1]
_adc_flag_group         0x00007b9c    0x28  Data  Gb  exercise8.o [1]
_adc_isr                0xfff07e65    0x31  Code  Gb  adc.o [1]
_adc_task               0xfff07e96    0xf6  Code  Gb  adc.o [1]
_alarm_high             0xfff01a18     0x8  Data  Gb  alarm.o [1]
_alarm_low              0xfff01a08     0x8  Data  Gb  alarm.o [1]
_alarm_medium           0xfff01a10     0x8  Data  Gb  alarm.o [1]
_alarm_task             0xfff063f6   0x1d8  Code  Gb  alarm.o [1]
_debounce_task          0xfff080a4    0x88  Code  Gb  pushbutton.o [1]
_default_handler        0xfff08284    0x20  Code  Gb  interrupt_table.o [4]
_exit                   0xfff08227     0x4  Code  Gb  exit.o [4]
_g_adc_q                0x00007a8c    0x30  Data  Lc  adc.o [1]
_g_alarm_stack          0x00006644   0x200  Data  Lc  exercise8.o [1]
_g_alarm_tcb            0x00007664    0xc4  Data  Lc  exercise8.o [1]
_g_debounce_stack       0x00005e44   0x200  Data  Lc  exercise8.o [1]
_g_debounce_tcb         0x00007354    0xc4  Data  Lc  exercise8.o [1]
_g_handle_potentiometer_stack
                        0x00006444   0x200  Data  Lc  exercise8.o [1]
_g_handle_sw1_stack     0x00006044   0x200  Data  Lc  exercise8.o [1]
_g_handle_sw2_stack     0x00006244   0x200  Data  Lc  exercise8.o [1]
_g_led5_stack           0x00005844   0x200  Data  Lc  exercise8.o [1]
_g_led5_tcb             0x00007108    0xc4  Data  Lc  exercise8.o [1]
_g_led6_stack           0x00005a44   0x200  Data  Lc  exercise8.o [1]
_g_led6_tcb             0x000071cc    0xc4  Data  Lc  exercise8.o [1]
_g_speaker_stack        0x00005644   0x200  Data  Lc  alarm.o [1]
_g_speaker_tcb          0x00007044    0xc4  Data  Lc  alarm.o [1]
_g_startup_stack        0x00005c44   0x200  Data  Lc  exercise8.o [1]
_g_startup_tcb          0x00007290    0xc4  Data  Lc  exercise8.o [1]
_g_sw1_sem              0x00007b74    0x28  Data  Gb  exercise8.o [1]
_g_sw2_sem              0x00007b4c    0x28  Data  Gb  exercise8.o [1]
_handle_potentiometer_tcb
                        0x000075a0    0xc4  Data  Lc  exercise8.o [1]
_handle_sw1_press_task  0xfff08059    0x4b  Code  Gb  pushbutton.o [1]
_handle_sw1_tcb         0x00007418    0xc4  Data  Lc  exercise8.o [1]
_handle_sw2_press_task  0xfff0800e    0x4b  Code  Gb  pushbutton.o [1]
_handle_sw2_tcb         0x000074dc    0xc4  Data  Lc  exercise8.o [1]
_led5_task              0xfff07246    0x63  Code  Gb  exercise8.o [1]
_led6_task              0xfff071e4    0x62  Code  Gb  exercise8.o [1]
_led_mutex              0x00007aec    0x30  Data  Gb  exercise8.o [1]
_main                   0xfff06f08    0xad  Code  Gb  exercise8.o [1]
_out                    0xfff06a8a    0x15  Code  Lc  xreportassert.o [4]
_p_adc                  0xfff01db4     0x4  Data  Gb  adc.o [1]
_putchar                0xfff06aae    0x25  Code  Gb  putchar.o [4]
_size                   0x00007c94     0x2  Data  Lc  adc.o [1]
_speaker_config         0xfff0672e    0xf8  Code  Lc  alarm.o [1]
_speaker_task           0xfff065ce   0x160  Code  Gb  alarm.o [1]
_sprintf                0xfff07fe0    0x2e  Code  Gb  sprintf.o [4]
_startup_task           0xfff06fb5   0x22f  Code  Gb  exercise8.o [1]
_strlen                 0xfff063d1     0xf  Code  Gb  strlen.o [4]
_sw1_counter            0x00007cba     0x2  Data  Lc  pushbutton.o [1]
_sw2_counter            0x00007cbc     0x2  Data  Lc  pushbutton.o [1]
_vector_table           0xfff06b08   0x400  Data  Gb  interrupt_table.o [4]


[1] = C:\Embed_v2\Exercises\HandsOn\Exercise8\Debug\Obj
[2] = command line
[3] = dbgrxlld.a
[4] = dlrxflln.a

  24 445 bytes of readonly  code memory
   9 313 bytes of readonly  data memory
  32 450 bytes of readwrite data memory

Errors: none
Warnings: none
